Component: ARM Compiler 5.06 (build 20) Tool: armlink [4d35a3]

==============================================================================

Section Cross References

    startup_stm32f40_41xxx.o(RESET) refers to startup_stm32f40_41xxx.o(STACK) for __initial_sp
    startup_stm32f40_41xxx.o(RESET) refers to startup_stm32f40_41xxx.o(.text) for Reset_Handler
    startup_stm32f40_41xxx.o(RESET) refers to stm32f4xx_it.o(i.NMI_Handler) for NMI_Handler
    startup_stm32f40_41xxx.o(RESET) refers to stm32f4xx_it.o(i.HardFault_Handler) for HardFault_Handler
    startup_stm32f40_41xxx.o(RESET) refers to stm32f4xx_it.o(i.MemManage_Handler) for MemManage_Handler
    startup_stm32f40_41xxx.o(RESET) refers to stm32f4xx_it.o(i.BusFault_Handler) for BusFault_Handler
    startup_stm32f40_41xxx.o(RESET) refers to stm32f4xx_it.o(i.UsageFault_Handler) for UsageFault_Handler
    startup_stm32f40_41xxx.o(RESET) refers to stm32f4xx_it.o(i.SVC_Handler) for SVC_Handler
    startup_stm32f40_41xxx.o(RESET) refers to stm32f4xx_it.o(i.DebugMon_Handler) for DebugMon_Handler
    startup_stm32f40_41xxx.o(RESET) refers to os_cpu_a.o(CODE) for OS_CPU_PendSVHandler
    startup_stm32f40_41xxx.o(RESET) refers to os_cpu_c.o(i.OS_CPU_SysTickHandler) for OS_CPU_SysTickHandler
    startup_stm32f40_41xxx.o(RESET) refers to stm32f4xx_it.o(i.DMA1_Stream2_IRQHandler) for DMA1_Stream2_IRQHandler
    startup_stm32f40_41xxx.o(RESET) refers to stm32f4xx_it.o(i.CAN1_RX0_IRQHandler) for CAN1_RX0_IRQHandler
    startup_stm32f40_41xxx.o(RESET) refers to stm32f4xx_it.o(i.EXTI9_5_IRQHandler) for EXTI9_5_IRQHandler
    startup_stm32f40_41xxx.o(RESET) refers to stm32f4xx_it.o(i.TIM1_CC_IRQHandler) for TIM1_CC_IRQHandler
    startup_stm32f40_41xxx.o(RESET) refers to stm32f4xx_it.o(i.TIM2_IRQHandler) for TIM2_IRQHandler
    startup_stm32f40_41xxx.o(RESET) refers to stm32f4xx_it.o(i.TIM3_IRQHandler) for TIM3_IRQHandler
    startup_stm32f40_41xxx.o(RESET) refers to stm32f4xx_it.o(i.TIM4_IRQHandler) for TIM4_IRQHandler
    startup_stm32f40_41xxx.o(RESET) refers to stm32f4xx_it.o(i.USART2_IRQHandler) for USART2_IRQHandler
    startup_stm32f40_41xxx.o(RESET) refers to stm32f4xx_it.o(i.USART3_IRQHandler) for USART3_IRQHandler
    startup_stm32f40_41xxx.o(RESET) refers to stm32f4xx_it.o(i.EXTI15_10_IRQHandler) for EXTI15_10_IRQHandler
    startup_stm32f40_41xxx.o(RESET) refers to stm32f4xx_it.o(i.SDIO_IRQHandler) for SDIO_IRQHandler
    startup_stm32f40_41xxx.o(RESET) refers to stm32f4xx_it.o(i.UART4_IRQHandler) for UART4_IRQHandler
    startup_stm32f40_41xxx.o(RESET) refers to stm32f4xx_it.o(i.DMA2_Stream3_IRQHandler) for DMA2_Stream3_IRQHandler
    startup_stm32f40_41xxx.o(.text) refers to system_stm32f4xx.o(i.SystemInit) for SystemInit
    startup_stm32f40_41xxx.o(.text) refers to entry.o(.ARM.Collect$$$$00000000) for __main
    system_stm32f4xx.o(i.SystemCoreClockUpdate) refers to system_stm32f4xx.o(.data) for SystemCoreClock
    system_stm32f4xx.o(i.SystemInit) refers to system_stm32f4xx.o(i.SetSysClock) for SetSysClock
    stm32f4xx_adc.o(i.ADC_DeInit) refers to stm32f4xx_rcc.o(i.RCC_APB2PeriphResetCmd) for RCC_APB2PeriphResetCmd
    stm32f4xx_gpio.o(i.GPIO_DeInit) refers to stm32f4xx_rcc.o(i.RCC_AHB1PeriphResetCmd) for RCC_AHB1PeriphResetCmd
    stm32f4xx_rcc.o(i.RCC_GetClocksFreq) refers to stm32f4xx_rcc.o(.data) for APBAHBPrescTable
    stm32f4xx_rcc.o(i.RCC_WaitForHSEStartUp) refers to stm32f4xx_rcc.o(i.RCC_GetFlagStatus) for RCC_GetFlagStatus
    stm32f4xx_sdio.o(i.SDIO_DeInit) refers to stm32f4xx_rcc.o(i.RCC_APB2PeriphResetCmd) for RCC_APB2PeriphResetCmd
    stm32f4xx_spi.o(i.SPI_I2S_DeInit) refers to stm32f4xx_rcc.o(i.RCC_APB2PeriphResetCmd) for RCC_APB2PeriphResetCmd
    stm32f4xx_spi.o(i.SPI_I2S_DeInit) refers to stm32f4xx_rcc.o(i.RCC_APB1PeriphResetCmd) for RCC_APB1PeriphResetCmd
    stm32f4xx_syscfg.o(i.SYSCFG_DeInit) refers to stm32f4xx_rcc.o(i.RCC_APB2PeriphResetCmd) for RCC_APB2PeriphResetCmd
    stm32f4xx_tim.o(i.TIM_DeInit) refers to stm32f4xx_rcc.o(i.RCC_APB2PeriphResetCmd) for RCC_APB2PeriphResetCmd
    stm32f4xx_tim.o(i.TIM_DeInit) refers to stm32f4xx_rcc.o(i.RCC_APB1PeriphResetCmd) for RCC_APB1PeriphResetCmd
    stm32f4xx_tim.o(i.TIM_ETRClockMode1Config) refers to stm32f4xx_tim.o(i.TIM_ETRConfig) for TIM_ETRConfig
    stm32f4xx_tim.o(i.TIM_ETRClockMode2Config) refers to stm32f4xx_tim.o(i.TIM_ETRConfig) for TIM_ETRConfig
    stm32f4xx_tim.o(i.TIM_ICInit) refers to stm32f4xx_tim.o(i.TI1_Config) for TI1_Config
    stm32f4xx_tim.o(i.TIM_ICInit) refers to stm32f4xx_tim.o(i.TIM_SetIC1Prescaler) for TIM_SetIC1Prescaler
    stm32f4xx_tim.o(i.TIM_ICInit) refers to stm32f4xx_tim.o(i.TI2_Config) for TI2_Config
    stm32f4xx_tim.o(i.TIM_ICInit) refers to stm32f4xx_tim.o(i.TIM_SetIC2Prescaler) for TIM_SetIC2Prescaler
    stm32f4xx_tim.o(i.TIM_ICInit) refers to stm32f4xx_tim.o(i.TI3_Config) for TI3_Config
    stm32f4xx_tim.o(i.TIM_ICInit) refers to stm32f4xx_tim.o(i.TIM_SetIC3Prescaler) for TIM_SetIC3Prescaler
    stm32f4xx_tim.o(i.TIM_ICInit) refers to stm32f4xx_tim.o(i.TI4_Config) for TI4_Config
    stm32f4xx_tim.o(i.TIM_ICInit) refers to stm32f4xx_tim.o(i.TIM_SetIC4Prescaler) for TIM_SetIC4Prescaler
    stm32f4xx_tim.o(i.TIM_ITRxExternalClockConfig) refers to stm32f4xx_tim.o(i.TIM_SelectInputTrigger) for TIM_SelectInputTrigger
    stm32f4xx_tim.o(i.TIM_PWMIConfig) refers to stm32f4xx_tim.o(i.TI1_Config) for TI1_Config
    stm32f4xx_tim.o(i.TIM_PWMIConfig) refers to stm32f4xx_tim.o(i.TIM_SetIC1Prescaler) for TIM_SetIC1Prescaler
    stm32f4xx_tim.o(i.TIM_PWMIConfig) refers to stm32f4xx_tim.o(i.TI2_Config) for TI2_Config
    stm32f4xx_tim.o(i.TIM_PWMIConfig) refers to stm32f4xx_tim.o(i.TIM_SetIC2Prescaler) for TIM_SetIC2Prescaler
    stm32f4xx_tim.o(i.TIM_TIxExternalClockConfig) refers to stm32f4xx_tim.o(i.TI2_Config) for TI2_Config
    stm32f4xx_tim.o(i.TIM_TIxExternalClockConfig) refers to stm32f4xx_tim.o(i.TI1_Config) for TI1_Config
    stm32f4xx_tim.o(i.TIM_TIxExternalClockConfig) refers to stm32f4xx_tim.o(i.TIM_SelectInputTrigger) for TIM_SelectInputTrigger
    stm32f4xx_usart.o(i.USART_DeInit) refers to stm32f4xx_rcc.o(i.RCC_APB2PeriphResetCmd) for RCC_APB2PeriphResetCmd
    stm32f4xx_usart.o(i.USART_DeInit) refers to stm32f4xx_rcc.o(i.RCC_APB1PeriphResetCmd) for RCC_APB1PeriphResetCmd
    stm32f4xx_usart.o(i.USART_Init) refers to stm32f4xx_rcc.o(i.RCC_GetClocksFreq) for RCC_GetClocksFreq
    stm32f4xx_i2c.o(i.I2C_DeInit) refers to stm32f4xx_rcc.o(i.RCC_APB1PeriphResetCmd) for RCC_APB1PeriphResetCmd
    stm32f4xx_i2c.o(i.I2C_Init) refers to stm32f4xx_rcc.o(i.RCC_GetClocksFreq) for RCC_GetClocksFreq
    stm32f4xx_can.o(i.CAN_DeInit) refers to stm32f4xx_rcc.o(i.RCC_APB1PeriphResetCmd) for RCC_APB1PeriphResetCmd
    stm32f4xx_can.o(i.CAN_GetITStatus) refers to stm32f4xx_can.o(i.CheckITStatus) for CheckITStatus
    bsp.o(i.BSP_CPU_ClkFreq) refers to stm32f4xx_rcc.o(i.RCC_GetClocksFreq) for RCC_GetClocksFreq
    bsp.o(i.BSP_GPIOinit) refers to stm32f4xx_rcc.o(i.RCC_AHB1PeriphClockCmd) for RCC_AHB1PeriphClockCmd
    bsp.o(i.BSP_GPIOinit) refers to stm32f4xx_gpio.o(i.GPIO_Init) for GPIO_Init
    bsp.o(i.BSP_GPIOinit) refers to stm32f4xx_gpio.o(i.GPIO_PinAFConfig) for GPIO_PinAFConfig
    bsp.o(i.BSP_dmaInit) refers to stm32f4xx_rcc.o(i.RCC_AHB1PeriphClockCmd) for RCC_AHB1PeriphClockCmd
    bsp.o(i.BSP_dmaInit) refers to stm32f4xx_dma.o(i.DMA_ClearFlag) for DMA_ClearFlag
    bsp.o(i.BSP_dmaInit) refers to stm32f4xx_dma.o(i.DMA_Cmd) for DMA_Cmd
    bsp.o(i.BSP_dmaInit) refers to stm32f4xx_dma.o(i.DMA_DeInit) for DMA_DeInit
    bsp.o(i.BSP_dmaInit) refers to stm32f4xx_dma.o(i.DMA_Init) for DMA_Init
    bsp.o(i.BSP_dmaInit) refers to bsp.o(.bss) for bspData
    bsp.o(i.BSP_init) refers to bsp.o(i.BSP_GPIOinit) for BSP_GPIOinit
    bsp.o(i.BSP_init) refers to bsp.o(i.BSP_usartInit) for BSP_usartInit
    bsp.o(i.BSP_init) refers to bsp.o(i.BSP_timerInit) for BSP_timerInit
    bsp.o(i.BSP_init) refers to bsp.o(i.BSP_nvicInit) for BSP_nvicInit
    bsp.o(i.BSP_init) refers to bsp.o(i.BSP_dmaInit) for BSP_dmaInit
    bsp.o(i.BSP_init) refers to bsp.o(i.Bsp_adcInit) for Bsp_adcInit
    bsp.o(i.BSP_init) refers to bsp.o(i.BSP_spiInit) for BSP_spiInit
    bsp.o(i.BSP_init) refers to bsp.o(i.BSP_i2cInit) for BSP_i2cInit
    bsp.o(i.BSP_init) refers to bsp.o(i.Bsp_extiInit) for Bsp_extiInit
    bsp.o(i.BSP_init) refers to bsp.o(i.Bsp_canInit) for Bsp_canInit
    bsp.o(i.BSP_init) refers to stm32f4xx_rcc.o(i.RCC_AHB1PeriphClockCmd) for RCC_AHB1PeriphClockCmd
    bsp.o(i.BSP_nvicInit) refers to misc.o(i.NVIC_PriorityGroupConfig) for NVIC_PriorityGroupConfig
    bsp.o(i.BSP_nvicInit) refers to function.o(i.fun_nvicSetNormal) for fun_nvicSetNormal
    bsp.o(i.BSP_spiInit) refers to stm32f4xx_rcc.o(i.RCC_APB1PeriphClockCmd) for RCC_APB1PeriphClockCmd
    bsp.o(i.BSP_spiInit) refers to stm32f4xx_spi.o(i.SPI_Init) for SPI_Init
    bsp.o(i.BSP_spiInit) refers to stm32f4xx_spi.o(i.SPI_Cmd) for SPI_Cmd
    bsp.o(i.BSP_timerInit) refers to stm32f4xx_rcc.o(i.RCC_APB2PeriphClockCmd) for RCC_APB2PeriphClockCmd
    bsp.o(i.BSP_timerInit) refers to stm32f4xx_tim.o(i.TIM_TimeBaseInit) for TIM_TimeBaseInit
    bsp.o(i.BSP_timerInit) refers to stm32f4xx_tim.o(i.TIM_OC1Init) for TIM_OC1Init
    bsp.o(i.BSP_timerInit) refers to stm32f4xx_tim.o(i.TIM_OC1PreloadConfig) for TIM_OC1PreloadConfig
    bsp.o(i.BSP_timerInit) refers to stm32f4xx_tim.o(i.TIM_ARRPreloadConfig) for TIM_ARRPreloadConfig
    bsp.o(i.BSP_timerInit) refers to stm32f4xx_tim.o(i.TIM_Cmd) for TIM_Cmd
    bsp.o(i.BSP_timerInit) refers to stm32f4xx_rcc.o(i.RCC_APB1PeriphClockCmd) for RCC_APB1PeriphClockCmd
    bsp.o(i.BSP_timerInit) refers to stm32f4xx_tim.o(i.TIM_ICInit) for TIM_ICInit
    bsp.o(i.BSP_timerInit) refers to stm32f4xx_tim.o(i.TIM_ITConfig) for TIM_ITConfig
    bsp.o(i.BSP_timerInit) refers to stm32f4xx_tim.o(i.TIM_OC2Init) for TIM_OC2Init
    bsp.o(i.BSP_timerInit) refers to stm32f4xx_tim.o(i.TIM_OC3Init) for TIM_OC3Init
    bsp.o(i.BSP_timerInit) refers to stm32f4xx_tim.o(i.TIM_OC4Init) for TIM_OC4Init
    bsp.o(i.BSP_usartInit) refers to stm32f4xx_rcc.o(i.RCC_APB1PeriphClockCmd) for RCC_APB1PeriphClockCmd
    bsp.o(i.BSP_usartInit) refers to stm32f4xx_usart.o(i.USART_Init) for USART_Init
    bsp.o(i.BSP_usartInit) refers to stm32f4xx_usart.o(i.USART_ITConfig) for USART_ITConfig
    bsp.o(i.BSP_usartInit) refers to stm32f4xx_usart.o(i.USART_Cmd) for USART_Cmd
    bsp.o(i.BSP_usartInit) refers to stm32f4xx_rcc.o(i.RCC_APB2PeriphClockCmd) for RCC_APB2PeriphClockCmd
    bsp.o(i.Bsp_canInit) refers to stm32f4xx_rcc.o(i.RCC_APB1PeriphClockCmd) for RCC_APB1PeriphClockCmd
    bsp.o(i.Bsp_canInit) refers to stm32f4xx_can.o(i.CAN_DeInit) for CAN_DeInit
    bsp.o(i.Bsp_canInit) refers to stm32f4xx_can.o(i.CAN_Init) for CAN_Init
    bsp.o(i.Bsp_canInit) refers to stm32f4xx_can.o(i.CAN_FilterInit) for CAN_FilterInit
    bsp.o(i.CPU_TS32_to_uSec) refers to bsp.o(i.BSP_CPU_ClkFreq) for BSP_CPU_ClkFreq
    bsp.o(i.CPU_TS32_to_uSec) refers to uldiv.o(.text) for __aeabi_uldivmod
    bsp.o(i.CPU_TS_TmrInit) refers to bsp.o(i.BSP_CPU_ClkFreq) for BSP_CPU_ClkFreq
    bsp.o(i.CPU_TS_TmrInit) refers to cpu_core.o(i.CPU_TS_TmrFreqSet) for CPU_TS_TmrFreqSet
    function.o(i.fun_createTaskSimple) refers to os_task.o(i.OSTaskCreate) for OSTaskCreate
    function.o(i.fun_delayMs) refers to os_time.o(i.OSTimeDlyHMSM) for OSTimeDlyHMSM
    function.o(i.fun_nvicSetNormal) refers to misc.o(i.NVIC_Init) for NVIC_Init
    function.o(i.fun_printf) refers to printfa.o(i.__0vsprintf) for __c89vsprintf
    function.o(i.fun_printf) refers to function.o(i.fun_usartSend) for fun_usartSend
    function.o(i.fun_spiSwap) refers to stm32f4xx_spi.o(i.SPI_I2S_GetFlagStatus) for SPI_I2S_GetFlagStatus
    function.o(i.fun_spiSwap) refers to stm32f4xx_spi.o(i.SPI_I2S_SendData) for SPI_I2S_SendData
    function.o(i.fun_spiSwap) refers to stm32f4xx_spi.o(i.SPI_I2S_ReceiveData) for SPI_I2S_ReceiveData
    function.o(i.fun_usartRec) refers to stm32f4xx_usart.o(i.USART_GetFlagStatus) for USART_GetFlagStatus
    function.o(i.fun_usartRec) refers to stm32f4xx_usart.o(i.USART_ReceiveData) for USART_ReceiveData
    function.o(i.fun_usartSend) refers to stm32f4xx_usart.o(i.USART_GetFlagStatus) for USART_GetFlagStatus
    function.o(i.fun_usartSend) refers to stm32f4xx_usart.o(i.USART_SendData) for USART_SendData
    i2ch.o(i.I2CH_dmaReadStart) refers to stm32f4xx_i2c.o(i.I2C_GenerateSTART) for I2C_GenerateSTART
    i2ch.o(i.I2CH_dmaReadStart) refers to i2ch.o(i.i2cCheckEvent) for i2cCheckEvent
    i2ch.o(i.I2CH_dmaReadStart) refers to stm32f4xx_i2c.o(i.I2C_Send7bitAddress) for I2C_Send7bitAddress
    i2ch.o(i.I2CH_dmaReadStart) refers to stm32f4xx_i2c.o(i.I2C_Cmd) for I2C_Cmd
    i2ch.o(i.I2CH_dmaReadStart) refers to stm32f4xx_i2c.o(i.I2C_SendData) for I2C_SendData
    i2ch.o(i.I2CH_dmaReadStart) refers to stm32f4xx_i2c.o(i.I2C_AcknowledgeConfig) for I2C_AcknowledgeConfig
    i2ch.o(i.I2CH_dmaReadStart) refers to stm32f4xx_i2c.o(i.I2C_DMACmd) for I2C_DMACmd
    i2ch.o(i.I2CH_dmaReadStart) refers to stm32f4xx_dma.o(i.DMA_Cmd) for DMA_Cmd
    i2ch.o(i.I2CH_dmaReadWaitFlag) refers to stm32f4xx_dma.o(i.DMA_GetCmdStatus) for DMA_GetCmdStatus
    i2ch.o(i.I2CH_dmaReadWaitFlag) refers to stm32f4xx_dma.o(i.DMA_GetFlagStatus) for DMA_GetFlagStatus
    i2ch.o(i.I2CH_dmaReadWaitFlag) refers to stm32f4xx_i2c.o(i.I2C_AcknowledgeConfig) for I2C_AcknowledgeConfig
    i2ch.o(i.I2CH_dmaReadWaitFlag) refers to stm32f4xx_i2c.o(i.I2C_GenerateSTOP) for I2C_GenerateSTOP
    i2ch.o(i.I2CH_dmaReadWaitFlag) refers to stm32f4xx_dma.o(i.DMA_ClearFlag) for DMA_ClearFlag
    i2ch.o(i.I2CH_readBuffer) refers to stm32f4xx_i2c.o(i.I2C_GetFlagStatus) for I2C_GetFlagStatus
    i2ch.o(i.I2CH_readBuffer) refers to stm32f4xx_i2c.o(i.I2C_GenerateSTART) for I2C_GenerateSTART
    i2ch.o(i.I2CH_readBuffer) refers to i2ch.o(i.i2cCheckEvent) for i2cCheckEvent
    i2ch.o(i.I2CH_readBuffer) refers to stm32f4xx_i2c.o(i.I2C_Send7bitAddress) for I2C_Send7bitAddress
    i2ch.o(i.I2CH_readBuffer) refers to stm32f4xx_i2c.o(i.I2C_Cmd) for I2C_Cmd
    i2ch.o(i.I2CH_readBuffer) refers to stm32f4xx_i2c.o(i.I2C_SendData) for I2C_SendData
    i2ch.o(i.I2CH_readBuffer) refers to stm32f4xx_i2c.o(i.I2C_AcknowledgeConfig) for I2C_AcknowledgeConfig
    i2ch.o(i.I2CH_readBuffer) refers to stm32f4xx_i2c.o(i.I2C_ReceiveData) for I2C_ReceiveData
    i2ch.o(i.I2CH_readBuffer) refers to stm32f4xx_i2c.o(i.I2C_GenerateSTOP) for I2C_GenerateSTOP
    i2ch.o(i.I2CH_readByte) refers to stm32f4xx_i2c.o(i.I2C_GenerateSTART) for I2C_GenerateSTART
    i2ch.o(i.I2CH_readByte) refers to i2ch.o(i.i2cCheckEvent) for i2cCheckEvent
    i2ch.o(i.I2CH_readByte) refers to stm32f4xx_i2c.o(i.I2C_Send7bitAddress) for I2C_Send7bitAddress
    i2ch.o(i.I2CH_readByte) refers to stm32f4xx_i2c.o(i.I2C_Cmd) for I2C_Cmd
    i2ch.o(i.I2CH_readByte) refers to stm32f4xx_i2c.o(i.I2C_SendData) for I2C_SendData
    i2ch.o(i.I2CH_readByte) refers to stm32f4xx_i2c.o(i.I2C_AcknowledgeConfig) for I2C_AcknowledgeConfig
    i2ch.o(i.I2CH_readByte) refers to stm32f4xx_i2c.o(i.I2C_GenerateSTOP) for I2C_GenerateSTOP
    i2ch.o(i.I2CH_readByte) refers to stm32f4xx_i2c.o(i.I2C_ReceiveData) for I2C_ReceiveData
    i2ch.o(i.I2CH_writeByte) refers to stm32f4xx_i2c.o(i.I2C_GenerateSTART) for I2C_GenerateSTART
    i2ch.o(i.I2CH_writeByte) refers to i2ch.o(i.i2cCheckEvent) for i2cCheckEvent
    i2ch.o(i.I2CH_writeByte) refers to stm32f4xx_i2c.o(i.I2C_Send7bitAddress) for I2C_Send7bitAddress
    i2ch.o(i.I2CH_writeByte) refers to stm32f4xx_i2c.o(i.I2C_SendData) for I2C_SendData
    i2ch.o(i.I2CH_writeByte) refers to stm32f4xx_i2c.o(i.I2C_GenerateSTOP) for I2C_GenerateSTOP
    i2ch.o(i.i2cCheckEvent) refers to stm32f4xx_i2c.o(i.I2C_CheckEvent) for I2C_CheckEvent
    stm32f4xx_it.o(i.CAN1_RX0_IRQHandler) refers to stm32f4xx_can.o(i.CAN_Receive) for CAN_Receive
    stm32f4xx_it.o(i.CAN1_RX0_IRQHandler) refers to bsp.o(.bss) for bspData
    stm32f4xx_it.o(i.DMA1_Stream2_IRQHandler) refers to stm32f4xx_dma.o(i.DMA_GetITStatus) for DMA_GetITStatus
    stm32f4xx_it.o(i.DMA1_Stream2_IRQHandler) refers to stm32f4xx_dma.o(i.DMA_ClearITPendingBit) for DMA_ClearITPendingBit
    stm32f4xx_it.o(i.DMA2_Stream3_IRQHandler) refers to cpu_a.o(.text) for CPU_SR_Save
    stm32f4xx_it.o(i.DMA2_Stream3_IRQHandler) refers to cpu_core.o(i.CPU_IntDisMeasStart) for CPU_IntDisMeasStart
    stm32f4xx_it.o(i.DMA2_Stream3_IRQHandler) refers to os_core.o(i.OSIntEnter) for OSIntEnter
    stm32f4xx_it.o(i.DMA2_Stream3_IRQHandler) refers to cpu_core.o(i.CPU_IntDisMeasStop) for CPU_IntDisMeasStop
    stm32f4xx_it.o(i.DMA2_Stream3_IRQHandler) refers to sdio_tf.o(i.SD_ProcessDMAIRQ) for SD_ProcessDMAIRQ
    stm32f4xx_it.o(i.DMA2_Stream3_IRQHandler) refers to os_core.o(i.OSIntExit) for OSIntExit
    stm32f4xx_it.o(i.EXTI15_10_IRQHandler) refers to stm32f4xx_exti.o(i.EXTI_GetITStatus) for EXTI_GetITStatus
    stm32f4xx_it.o(i.EXTI15_10_IRQHandler) refers to stm32f4xx_exti.o(i.EXTI_ClearITPendingBit) for EXTI_ClearITPendingBit
    stm32f4xx_it.o(i.EXTI9_5_IRQHandler) refers to stm32f4xx_exti.o(i.EXTI_GetITStatus) for EXTI_GetITStatus
    stm32f4xx_it.o(i.EXTI9_5_IRQHandler) refers to stm32f4xx_exti.o(i.EXTI_ClearITPendingBit) for EXTI_ClearITPendingBit
    stm32f4xx_it.o(i.SDIO_IRQHandler) refers to cpu_a.o(.text) for CPU_SR_Save
    stm32f4xx_it.o(i.SDIO_IRQHandler) refers to cpu_core.o(i.CPU_IntDisMeasStart) for CPU_IntDisMeasStart
    stm32f4xx_it.o(i.SDIO_IRQHandler) refers to os_core.o(i.OSIntEnter) for OSIntEnter
    stm32f4xx_it.o(i.SDIO_IRQHandler) refers to cpu_core.o(i.CPU_IntDisMeasStop) for CPU_IntDisMeasStop
    stm32f4xx_it.o(i.SDIO_IRQHandler) refers to sdio_tf.o(i.SD_ProcessIRQSrc) for SD_ProcessIRQSrc
    stm32f4xx_it.o(i.SDIO_IRQHandler) refers to os_core.o(i.OSIntExit) for OSIntExit
    stm32f4xx_it.o(i.TIM1_CC_IRQHandler) refers to stm32f4xx_tim.o(i.TIM_GetITStatus) for TIM_GetITStatus
    stm32f4xx_it.o(i.TIM1_CC_IRQHandler) refers to stm32f4xx_tim.o(i.TIM_ClearITPendingBit) for TIM_ClearITPendingBit
    stm32f4xx_it.o(i.TIM2_IRQHandler) refers to stm32f4xx_tim.o(i.TIM_GetITStatus) for TIM_GetITStatus
    stm32f4xx_it.o(i.TIM2_IRQHandler) refers to stm32f4xx_tim.o(i.TIM_ClearITPendingBit) for TIM_ClearITPendingBit
    stm32f4xx_it.o(i.TIM3_IRQHandler) refers to stm32f4xx_tim.o(i.TIM_GetITStatus) for TIM_GetITStatus
    stm32f4xx_it.o(i.TIM3_IRQHandler) refers to stm32f4xx_tim.o(i.TIM_ClearITPendingBit) for TIM_ClearITPendingBit
    stm32f4xx_it.o(i.TIM3_IRQHandler) refers to stm32f4xx_tim.o(i.TIM_GetCapture4) for TIM_GetCapture4
    stm32f4xx_it.o(i.TIM3_IRQHandler) refers to stm32f4xx_it.o(.data) for ic4ValueLast
    stm32f4xx_it.o(i.TIM3_IRQHandler) refers to bsp.o(.bss) for bspData
    stm32f4xx_it.o(i.TIM4_IRQHandler) refers to cpu_a.o(.text) for CPU_SR_Save
    stm32f4xx_it.o(i.TIM4_IRQHandler) refers to cpu_core.o(i.CPU_IntDisMeasStart) for CPU_IntDisMeasStart
    stm32f4xx_it.o(i.TIM4_IRQHandler) refers to os_core.o(i.OSIntEnter) for OSIntEnter
    stm32f4xx_it.o(i.TIM4_IRQHandler) refers to cpu_core.o(i.CPU_IntDisMeasStop) for CPU_IntDisMeasStop
    stm32f4xx_it.o(i.TIM4_IRQHandler) refers to stm32f4xx_tim.o(i.TIM_GetITStatus) for TIM_GetITStatus
    stm32f4xx_it.o(i.TIM4_IRQHandler) refers to stm32f4xx_tim.o(i.TIM_ClearITPendingBit) for TIM_ClearITPendingBit
    stm32f4xx_it.o(i.TIM4_IRQHandler) refers to os_task.o(i.OSTaskSemPost) for OSTaskSemPost
    stm32f4xx_it.o(i.TIM4_IRQHandler) refers to os_core.o(i.OSIntExit) for OSIntExit
    stm32f4xx_it.o(i.TIM4_IRQHandler) refers to app.o(.bss) for appData
    stm32f4xx_it.o(i.TIM4_IRQHandler) refers to stm32f4xx_it.o(.data) for counter
    stm32f4xx_it.o(i.UART4_IRQHandler) refers to stm32f4xx_usart.o(i.USART_GetITStatus) for USART_GetITStatus
    stm32f4xx_it.o(i.UART4_IRQHandler) refers to stm32f4xx_usart.o(i.USART_ClearITPendingBit) for USART_ClearITPendingBit
    stm32f4xx_it.o(i.UART4_IRQHandler) refers to stm32f4xx_usart.o(i.USART_ReceiveData) for USART_ReceiveData
    stm32f4xx_it.o(i.UART4_IRQHandler) refers to stm32f4xx_it.o(.data) for lastValue
    stm32f4xx_it.o(i.UART4_IRQHandler) refers to bsp.o(.bss) for bspData
    stm32f4xx_it.o(i.UART4_IRQHandler) refers to app.o(.bss) for imuData
    stm32f4xx_it.o(i.UART4_IRQHandler) refers to app.o(.data) for dogData
    stm32f4xx_it.o(i.USART2_IRQHandler) refers to stm32f4xx_usart.o(i.USART_GetITStatus) for USART_GetITStatus
    stm32f4xx_it.o(i.USART2_IRQHandler) refers to stm32f4xx_usart.o(i.USART_ClearITPendingBit) for USART_ClearITPendingBit
    stm32f4xx_it.o(i.USART2_IRQHandler) refers to stm32f4xx_usart.o(i.USART_ReceiveData) for USART_ReceiveData
    stm32f4xx_it.o(i.USART2_IRQHandler) refers to stm32f4xx_usart.o(i.USART_SendData) for USART_SendData
    stm32f4xx_it.o(i.USART2_IRQHandler) refers to bsp.o(.bss) for bspData
    stm32f4xx_it.o(i.USART2_IRQHandler) refers to stm32f4xx_it.o(.data) for counter
    stm32f4xx_it.o(i.USART2_IRQHandler) refers to stm32f4xx_it.o(.bss) for receiverBuf
    stm32f4xx_it.o(i.USART2_IRQHandler) refers to app.o(.bss) for uavData
    stm32f4xx_it.o(i.USART2_IRQHandler) refers to app.o(.data) for dogData
    stm32f4xx_it.o(i.USART3_IRQHandler) refers to cpu_a.o(.text) for CPU_SR_Save
    stm32f4xx_it.o(i.USART3_IRQHandler) refers to cpu_core.o(i.CPU_IntDisMeasStart) for CPU_IntDisMeasStart
    stm32f4xx_it.o(i.USART3_IRQHandler) refers to os_core.o(i.OSIntEnter) for OSIntEnter
    stm32f4xx_it.o(i.USART3_IRQHandler) refers to cpu_core.o(i.CPU_IntDisMeasStop) for CPU_IntDisMeasStop
    stm32f4xx_it.o(i.USART3_IRQHandler) refers to stm32f4xx_usart.o(i.USART_GetITStatus) for USART_GetITStatus
    stm32f4xx_it.o(i.USART3_IRQHandler) refers to stm32f4xx_usart.o(i.USART_ClearITPendingBit) for USART_ClearITPendingBit
    stm32f4xx_it.o(i.USART3_IRQHandler) refers to stm32f4xx_usart.o(i.USART_ReceiveData) for USART_ReceiveData
    stm32f4xx_it.o(i.USART3_IRQHandler) refers to stm32f4xx_usart.o(i.USART_SendData) for USART_SendData
    stm32f4xx_it.o(i.USART3_IRQHandler) refers to stm32f4xx_it.o(i.cmpWifiStr) for cmpWifiStr
    stm32f4xx_it.o(i.USART3_IRQHandler) refers to os_task.o(i.OSTaskSemPost) for OSTaskSemPost
    stm32f4xx_it.o(i.USART3_IRQHandler) refers to os_mem.o(i.OSMemGet) for OSMemGet
    stm32f4xx_it.o(i.USART3_IRQHandler) refers to os_task.o(i.OSTaskQPost) for OSTaskQPost
    stm32f4xx_it.o(i.USART3_IRQHandler) refers to os_core.o(i.OSIntExit) for OSIntExit
    stm32f4xx_it.o(i.USART3_IRQHandler) refers to stm32f4xx_it.o(.data) for usart3PtrMem
    stm32f4xx_it.o(i.USART3_IRQHandler) refers to app.o(.bss) for uavData
    stm32f4xx_it.o(i.cmpWifiStr) refers to stm32f4xx_it.o(.constdata) for wifiRecGotIp
    stm32f4xx_it.o(i.cmpWifiStr) refers to stm32f4xx_it.o(.data) for wifiRecCounter
    at25320.o(i.at25320_WRDI) refers to function.o(i.fun_delayUs) for fun_delayUs
    at25320.o(i.at25320_WRDI) refers to at25320.o(i.at25320_swapByte) for at25320_swapByte
    at25320.o(i.at25320_WREN) refers to function.o(i.fun_delayUs) for fun_delayUs
    at25320.o(i.at25320_WREN) refers to at25320.o(i.at25320_swapByte) for at25320_swapByte
    at25320.o(i.at25320_readBuffer) refers to function.o(i.fun_delayUs) for fun_delayUs
    at25320.o(i.at25320_readBuffer) refers to function.o(i.fun_spiSwap) for fun_spiSwap
    at25320.o(i.at25320_swapByte) refers to function.o(i.fun_delayUs) for fun_delayUs
    at25320.o(i.at25320_swapByte) refers to function.o(i.fun_spiSwap) for fun_spiSwap
    at25320.o(i.at25320_writeBuffer) refers to function.o(i.fun_delayUs) for fun_delayUs
    at25320.o(i.at25320_writeBuffer) refers to function.o(i.fun_spiSwap) for fun_spiSwap
    sdio_tf.o(i.Bsp_sdioInit) refers to stm32f4xx_sdio.o(i.SDIO_ClockCmd) for SDIO_ClockCmd
    sdio_tf.o(i.Bsp_sdioInit) refers to stm32f4xx_sdio.o(i.SDIO_SetPowerState) for SDIO_SetPowerState
    sdio_tf.o(i.Bsp_sdioInit) refers to stm32f4xx_rcc.o(i.RCC_APB2PeriphClockCmd) for RCC_APB2PeriphClockCmd
    sdio_tf.o(i.Bsp_sdioInit) refers to stm32f4xx_rcc.o(i.RCC_AHB1PeriphClockCmd) for RCC_AHB1PeriphClockCmd
    sdio_tf.o(i.Bsp_sdioInit) refers to stm32f4xx_sdio.o(i.SDIO_DeInit) for SDIO_DeInit
    sdio_tf.o(i.Bsp_sdioInit) refers to sdio_tf.o(i.SD_powerOn) for SD_powerOn
    sdio_tf.o(i.Bsp_sdioInit) refers to printfa.o(i.__0printf) for __2printf
    sdio_tf.o(i.Bsp_sdioInit) refers to sdio_tf.o(i.SD_InitializeCards) for SD_InitializeCards
    sdio_tf.o(i.Bsp_sdioInit) refers to stm32f4xx_sdio.o(i.SDIO_Init) for SDIO_Init
    sdio_tf.o(i.Bsp_sdioInit) refers to sdio_tf.o(i.SD_getCardInfo) for SD_getCardInfo
    sdio_tf.o(i.Bsp_sdioInit) refers to sdio_tf.o(i.SD_selectDeselect) for SD_selectDeselect
    sdio_tf.o(i.Bsp_sdioInit) refers to sdio_tf.o(i.SD_enableWideBusOperation) for SD_enableWideBusOperation
    sdio_tf.o(i.Bsp_sdioInit) refers to sdio_tf.o(.bss) for sdioInitStructure
    sdio_tf.o(i.CmdResp1Error) refers to stm32f4xx_sdio.o(i.SDIO_ClearFlag) for SDIO_ClearFlag
    sdio_tf.o(i.CmdResp1Error) refers to stm32f4xx_sdio.o(i.SDIO_GetCommandResponse) for SDIO_GetCommandResponse
    sdio_tf.o(i.CmdResp1Error) refers to stm32f4xx_sdio.o(i.SDIO_GetResponse) for SDIO_GetResponse
    sdio_tf.o(i.FindSCR) refers to stm32f4xx_sdio.o(i.SDIO_SendCommand) for SDIO_SendCommand
    sdio_tf.o(i.FindSCR) refers to sdio_tf.o(i.CmdResp1Error) for CmdResp1Error
    sdio_tf.o(i.FindSCR) refers to stm32f4xx_sdio.o(i.SDIO_DataConfig) for SDIO_DataConfig
    sdio_tf.o(i.FindSCR) refers to stm32f4xx_sdio.o(i.SDIO_GetFlagStatus) for SDIO_GetFlagStatus
    sdio_tf.o(i.FindSCR) refers to stm32f4xx_sdio.o(i.SDIO_ReadData) for SDIO_ReadData
    sdio_tf.o(i.FindSCR) refers to stm32f4xx_sdio.o(i.SDIO_ClearFlag) for SDIO_ClearFlag
    sdio_tf.o(i.FindSCR) refers to sdio_tf.o(.bss) for sdioCmdInitStructure
    sdio_tf.o(i.FindSCR) refers to sdio_tf.o(.data) for RCA
    sdio_tf.o(i.IsCardProgramming) refers to stm32f4xx_sdio.o(i.SDIO_SendCommand) for SDIO_SendCommand
    sdio_tf.o(i.IsCardProgramming) refers to stm32f4xx_sdio.o(i.SDIO_ClearFlag) for SDIO_ClearFlag
    sdio_tf.o(i.IsCardProgramming) refers to stm32f4xx_sdio.o(i.SDIO_GetCommandResponse) for SDIO_GetCommandResponse
    sdio_tf.o(i.IsCardProgramming) refers to stm32f4xx_sdio.o(i.SDIO_GetResponse) for SDIO_GetResponse
    sdio_tf.o(i.IsCardProgramming) refers to sdio_tf.o(.data) for RCA
    sdio_tf.o(i.IsCardProgramming) refers to sdio_tf.o(.bss) for sdioCmdInitStructure
    sdio_tf.o(i.SD_Erase) refers to stm32f4xx_sdio.o(i.SDIO_GetResponse) for SDIO_GetResponse
    sdio_tf.o(i.SD_Erase) refers to uldiv.o(.text) for __aeabi_uldivmod
    sdio_tf.o(i.SD_Erase) refers to stm32f4xx_sdio.o(i.SDIO_SendCommand) for SDIO_SendCommand
    sdio_tf.o(i.SD_Erase) refers to sdio_tf.o(i.CmdResp1Error) for CmdResp1Error
    sdio_tf.o(i.SD_Erase) refers to sdio_tf.o(i.IsCardProgramming) for IsCardProgramming
    sdio_tf.o(i.SD_Erase) refers to sdio_tf.o(.bss) for CSD_Tab
    sdio_tf.o(i.SD_Erase) refers to sdio_tf.o(.data) for cardType
    sdio_tf.o(i.SD_GetCardStatus) refers to sdio_tf.o(i.SD_SendSDStatus) for SD_SendSDStatus
    sdio_tf.o(i.SD_GetCardStatus) refers to sdio_tf.o(.bss) for SDSTATUS_Tab
    sdio_tf.o(i.SD_GetState) refers to sdio_tf.o(i.SD_Detect) for SD_Detect
    sdio_tf.o(i.SD_GetState) refers to sdio_tf.o(i.SD_SendStatus) for SD_SendStatus
    sdio_tf.o(i.SD_GetStatus) refers to sdio_tf.o(i.SD_GetState) for SD_GetState
    sdio_tf.o(i.SD_InitializeCards) refers to stm32f4xx_sdio.o(i.SDIO_GetPowerState) for SDIO_GetPowerState
    sdio_tf.o(i.SD_InitializeCards) refers to stm32f4xx_sdio.o(i.SDIO_SendCommand) for SDIO_SendCommand
    sdio_tf.o(i.SD_InitializeCards) refers to sdio_tf.o(i.cmdResp2Error) for cmdResp2Error
    sdio_tf.o(i.SD_InitializeCards) refers to stm32f4xx_sdio.o(i.SDIO_GetResponse) for SDIO_GetResponse
    sdio_tf.o(i.SD_InitializeCards) refers to sdio_tf.o(i.cmdResp6Error) for cmdResp6Error
    sdio_tf.o(i.SD_InitializeCards) refers to sdio_tf.o(.data) for cardType
    sdio_tf.o(i.SD_InitializeCards) refers to sdio_tf.o(.bss) for sdioCmdInitStructure
    sdio_tf.o(i.SD_LowLevel_DMA_RxConfig) refers to stm32f4xx_dma.o(i.DMA_ClearFlag) for DMA_ClearFlag
    sdio_tf.o(i.SD_LowLevel_DMA_RxConfig) refers to stm32f4xx_dma.o(i.DMA_Cmd) for DMA_Cmd
    sdio_tf.o(i.SD_LowLevel_DMA_RxConfig) refers to stm32f4xx_dma.o(i.DMA_DeInit) for DMA_DeInit
    sdio_tf.o(i.SD_LowLevel_DMA_RxConfig) refers to stm32f4xx_dma.o(i.DMA_Init) for DMA_Init
    sdio_tf.o(i.SD_LowLevel_DMA_RxConfig) refers to stm32f4xx_dma.o(i.DMA_ITConfig) for DMA_ITConfig
    sdio_tf.o(i.SD_LowLevel_DMA_RxConfig) refers to stm32f4xx_dma.o(i.DMA_FlowControllerConfig) for DMA_FlowControllerConfig
    sdio_tf.o(i.SD_LowLevel_DMA_TxConfig) refers to stm32f4xx_dma.o(i.DMA_ClearFlag) for DMA_ClearFlag
    sdio_tf.o(i.SD_LowLevel_DMA_TxConfig) refers to stm32f4xx_dma.o(i.DMA_Cmd) for DMA_Cmd
    sdio_tf.o(i.SD_LowLevel_DMA_TxConfig) refers to stm32f4xx_dma.o(i.DMA_DeInit) for DMA_DeInit
    sdio_tf.o(i.SD_LowLevel_DMA_TxConfig) refers to stm32f4xx_dma.o(i.DMA_Init) for DMA_Init
    sdio_tf.o(i.SD_LowLevel_DMA_TxConfig) refers to stm32f4xx_dma.o(i.DMA_ITConfig) for DMA_ITConfig
    sdio_tf.o(i.SD_LowLevel_DMA_TxConfig) refers to stm32f4xx_dma.o(i.DMA_FlowControllerConfig) for DMA_FlowControllerConfig
    sdio_tf.o(i.SD_ProcessDMAIRQ) refers to stm32f4xx_dma.o(i.DMA_GetITStatus) for DMA_GetITStatus
    sdio_tf.o(i.SD_ProcessDMAIRQ) refers to stm32f4xx_dma.o(i.DMA_ClearITPendingBit) for DMA_ClearITPendingBit
    sdio_tf.o(i.SD_ProcessDMAIRQ) refers to os_sem.o(i.OSSemPost) for OSSemPost
    sdio_tf.o(i.SD_ProcessDMAIRQ) refers to sdio_tf.o(.data) for DMAEndOfTransfer
    sdio_tf.o(i.SD_ProcessDMAIRQ) refers to app.o(.bss) for appData
    sdio_tf.o(i.SD_ProcessIRQSrc) refers to stm32f4xx_sdio.o(i.SDIO_GetITStatus) for SDIO_GetITStatus
    sdio_tf.o(i.SD_ProcessIRQSrc) refers to stm32f4xx_sdio.o(i.SDIO_ClearITPendingBit) for SDIO_ClearITPendingBit
    sdio_tf.o(i.SD_ProcessIRQSrc) refers to stm32f4xx_sdio.o(i.SDIO_ITConfig) for SDIO_ITConfig
    sdio_tf.o(i.SD_ProcessIRQSrc) refers to sdio_tf.o(.data) for TransferError
    sdio_tf.o(i.SD_ReadBlock) refers to stm32f4xx_sdio.o(i.SDIO_ITConfig) for SDIO_ITConfig
    sdio_tf.o(i.SD_ReadBlock) refers to stm32f4xx_sdio.o(i.SDIO_DMACmd) for SDIO_DMACmd
    sdio_tf.o(i.SD_ReadBlock) refers to sdio_tf.o(i.SD_LowLevel_DMA_RxConfig) for SD_LowLevel_DMA_RxConfig
    sdio_tf.o(i.SD_ReadBlock) refers to uldiv.o(.text) for __aeabi_uldivmod
    sdio_tf.o(i.SD_ReadBlock) refers to stm32f4xx_sdio.o(i.SDIO_SendCommand) for SDIO_SendCommand
    sdio_tf.o(i.SD_ReadBlock) refers to sdio_tf.o(i.CmdResp1Error) for CmdResp1Error
    sdio_tf.o(i.SD_ReadBlock) refers to stm32f4xx_sdio.o(i.SDIO_DataConfig) for SDIO_DataConfig
    sdio_tf.o(i.SD_ReadBlock) refers to sdio_tf.o(.data) for TransferError
    sdio_tf.o(i.SD_ReadBlock) refers to sdio_tf.o(.bss) for sdioCmdInitStructure
    sdio_tf.o(i.SD_ReadMultiBlocks) refers to stm32f4xx_sdio.o(i.SDIO_ITConfig) for SDIO_ITConfig
    sdio_tf.o(i.SD_ReadMultiBlocks) refers to sdio_tf.o(i.SD_LowLevel_DMA_RxConfig) for SD_LowLevel_DMA_RxConfig
    sdio_tf.o(i.SD_ReadMultiBlocks) refers to stm32f4xx_sdio.o(i.SDIO_DMACmd) for SDIO_DMACmd
    sdio_tf.o(i.SD_ReadMultiBlocks) refers to uldiv.o(.text) for __aeabi_uldivmod
    sdio_tf.o(i.SD_ReadMultiBlocks) refers to stm32f4xx_sdio.o(i.SDIO_SendCommand) for SDIO_SendCommand
    sdio_tf.o(i.SD_ReadMultiBlocks) refers to sdio_tf.o(i.CmdResp1Error) for CmdResp1Error
    sdio_tf.o(i.SD_ReadMultiBlocks) refers to stm32f4xx_sdio.o(i.SDIO_DataConfig) for SDIO_DataConfig
    sdio_tf.o(i.SD_ReadMultiBlocks) refers to sdio_tf.o(.data) for TransferError
    sdio_tf.o(i.SD_ReadMultiBlocks) refers to sdio_tf.o(.bss) for sdioCmdInitStructure
    sdio_tf.o(i.SD_SendSDStatus) refers to stm32f4xx_sdio.o(i.SDIO_GetResponse) for SDIO_GetResponse
    sdio_tf.o(i.SD_SendSDStatus) refers to stm32f4xx_sdio.o(i.SDIO_SendCommand) for SDIO_SendCommand
    sdio_tf.o(i.SD_SendSDStatus) refers to sdio_tf.o(i.CmdResp1Error) for CmdResp1Error
    sdio_tf.o(i.SD_SendSDStatus) refers to stm32f4xx_sdio.o(i.SDIO_DataConfig) for SDIO_DataConfig
    sdio_tf.o(i.SD_SendSDStatus) refers to stm32f4xx_sdio.o(i.SDIO_GetFlagStatus) for SDIO_GetFlagStatus
    sdio_tf.o(i.SD_SendSDStatus) refers to stm32f4xx_sdio.o(i.SDIO_ReadData) for SDIO_ReadData
    sdio_tf.o(i.SD_SendSDStatus) refers to stm32f4xx_sdio.o(i.SDIO_ClearFlag) for SDIO_ClearFlag
    sdio_tf.o(i.SD_SendSDStatus) refers to sdio_tf.o(.bss) for sdioCmdInitStructure
    sdio_tf.o(i.SD_SendSDStatus) refers to sdio_tf.o(.data) for RCA
    sdio_tf.o(i.SD_SendStatus) refers to stm32f4xx_sdio.o(i.SDIO_SendCommand) for SDIO_SendCommand
    sdio_tf.o(i.SD_SendStatus) refers to sdio_tf.o(i.CmdResp1Error) for CmdResp1Error
    sdio_tf.o(i.SD_SendStatus) refers to stm32f4xx_sdio.o(i.SDIO_GetResponse) for SDIO_GetResponse
    sdio_tf.o(i.SD_SendStatus) refers to sdio_tf.o(.data) for RCA
    sdio_tf.o(i.SD_SendStatus) refers to sdio_tf.o(.bss) for sdioCmdInitStructure
    sdio_tf.o(i.SD_StopTransfer) refers to stm32f4xx_sdio.o(i.SDIO_SendCommand) for SDIO_SendCommand
    sdio_tf.o(i.SD_StopTransfer) refers to sdio_tf.o(i.CmdResp1Error) for CmdResp1Error
    sdio_tf.o(i.SD_StopTransfer) refers to sdio_tf.o(.bss) for sdioCmdInitStructure
    sdio_tf.o(i.SD_WaitReadOperation) refers to os_sem.o(i.OSSemPend) for OSSemPend
    sdio_tf.o(i.SD_WaitReadOperation) refers to sdio_tf.o(i.SD_StopTransfer) for SD_StopTransfer
    sdio_tf.o(i.SD_WaitReadOperation) refers to stm32f4xx_sdio.o(i.SDIO_ClearFlag) for SDIO_ClearFlag
    sdio_tf.o(i.SD_WaitReadOperation) refers to app.o(.bss) for appData
    sdio_tf.o(i.SD_WaitReadOperation) refers to sdio_tf.o(.data) for DMAEndOfTransfer
    sdio_tf.o(i.SD_WaitWriteOperation) refers to os_sem.o(i.OSSemPend) for OSSemPend
    sdio_tf.o(i.SD_WaitWriteOperation) refers to sdio_tf.o(i.SD_StopTransfer) for SD_StopTransfer
    sdio_tf.o(i.SD_WaitWriteOperation) refers to stm32f4xx_sdio.o(i.SDIO_ClearFlag) for SDIO_ClearFlag
    sdio_tf.o(i.SD_WaitWriteOperation) refers to app.o(.bss) for appData
    sdio_tf.o(i.SD_WaitWriteOperation) refers to sdio_tf.o(.data) for DMAEndOfTransfer
    sdio_tf.o(i.SD_WriteBlock) refers to stm32f4xx_sdio.o(i.SDIO_ITConfig) for SDIO_ITConfig
    sdio_tf.o(i.SD_WriteBlock) refers to sdio_tf.o(i.SD_LowLevel_DMA_TxConfig) for SD_LowLevel_DMA_TxConfig
    sdio_tf.o(i.SD_WriteBlock) refers to stm32f4xx_sdio.o(i.SDIO_DMACmd) for SDIO_DMACmd
    sdio_tf.o(i.SD_WriteBlock) refers to uldiv.o(.text) for __aeabi_uldivmod
    sdio_tf.o(i.SD_WriteBlock) refers to stm32f4xx_sdio.o(i.SDIO_SendCommand) for SDIO_SendCommand
    sdio_tf.o(i.SD_WriteBlock) refers to sdio_tf.o(i.CmdResp1Error) for CmdResp1Error
    sdio_tf.o(i.SD_WriteBlock) refers to stm32f4xx_sdio.o(i.SDIO_DataConfig) for SDIO_DataConfig
    sdio_tf.o(i.SD_WriteBlock) refers to sdio_tf.o(.data) for TransferError
    sdio_tf.o(i.SD_WriteBlock) refers to sdio_tf.o(.bss) for sdioCmdInitStructure
    sdio_tf.o(i.SD_WriteMultiBlocks) refers to stm32f4xx_sdio.o(i.SDIO_ITConfig) for SDIO_ITConfig
    sdio_tf.o(i.SD_WriteMultiBlocks) refers to sdio_tf.o(i.SD_LowLevel_DMA_TxConfig) for SD_LowLevel_DMA_TxConfig
    sdio_tf.o(i.SD_WriteMultiBlocks) refers to stm32f4xx_sdio.o(i.SDIO_DMACmd) for SDIO_DMACmd
    sdio_tf.o(i.SD_WriteMultiBlocks) refers to uldiv.o(.text) for __aeabi_uldivmod
    sdio_tf.o(i.SD_WriteMultiBlocks) refers to stm32f4xx_sdio.o(i.SDIO_SendCommand) for SDIO_SendCommand
    sdio_tf.o(i.SD_WriteMultiBlocks) refers to sdio_tf.o(i.CmdResp1Error) for CmdResp1Error
    sdio_tf.o(i.SD_WriteMultiBlocks) refers to stm32f4xx_sdio.o(i.SDIO_DataConfig) for SDIO_DataConfig
    sdio_tf.o(i.SD_WriteMultiBlocks) refers to sdio_tf.o(.data) for TransferError
    sdio_tf.o(i.SD_WriteMultiBlocks) refers to sdio_tf.o(.bss) for sdioCmdInitStructure
    sdio_tf.o(i.SD_enableWideBusOperation) refers to sdio_tf.o(i.sdEnWideBus) for sdEnWideBus
    sdio_tf.o(i.SD_enableWideBusOperation) refers to stm32f4xx_sdio.o(i.SDIO_Init) for SDIO_Init
    sdio_tf.o(i.SD_enableWideBusOperation) refers to sdio_tf.o(.data) for cardType
    sdio_tf.o(i.SD_enableWideBusOperation) refers to sdio_tf.o(.bss) for sdioInitStructure
    sdio_tf.o(i.SD_getCardInfo) refers to sdio_tf.o(.data) for cardType
    sdio_tf.o(i.SD_getCardInfo) refers to sdio_tf.o(.bss) for CSD_Tab
    sdio_tf.o(i.SD_powerOff) refers to stm32f4xx_sdio.o(i.SDIO_SetPowerState) for SDIO_SetPowerState
    sdio_tf.o(i.SD_powerOn) refers to stm32f4xx_sdio.o(i.SDIO_Init) for SDIO_Init
    sdio_tf.o(i.SD_powerOn) refers to stm32f4xx_sdio.o(i.SDIO_SetPowerState) for SDIO_SetPowerState
    sdio_tf.o(i.SD_powerOn) refers to stm32f4xx_sdio.o(i.SDIO_ClockCmd) for SDIO_ClockCmd
    sdio_tf.o(i.SD_powerOn) refers to stm32f4xx_sdio.o(i.SDIO_SendCommand) for SDIO_SendCommand
    sdio_tf.o(i.SD_powerOn) refers to sdio_tf.o(i.cmdError) for cmdError
    sdio_tf.o(i.SD_powerOn) refers to printfa.o(i.__0printf) for __2printf
    sdio_tf.o(i.SD_powerOn) refers to sdio_tf.o(i.cmdResp7Error) for cmdResp7Error
    sdio_tf.o(i.SD_powerOn) refers to sdio_tf.o(i.CmdResp1Error) for CmdResp1Error
    sdio_tf.o(i.SD_powerOn) refers to sdio_tf.o(i.cmdResp3Error) for cmdResp3Error
    sdio_tf.o(i.SD_powerOn) refers to stm32f4xx_sdio.o(i.SDIO_GetResponse) for SDIO_GetResponse
    sdio_tf.o(i.SD_powerOn) refers to sdio_tf.o(.bss) for sdioInitStructure
    sdio_tf.o(i.SD_powerOn) refers to sdio_tf.o(.data) for cardType
    sdio_tf.o(i.SD_selectDeselect) refers to stm32f4xx_sdio.o(i.SDIO_SendCommand) for SDIO_SendCommand
    sdio_tf.o(i.SD_selectDeselect) refers to sdio_tf.o(i.CmdResp1Error) for CmdResp1Error
    sdio_tf.o(i.SD_selectDeselect) refers to sdio_tf.o(.bss) for sdioCmdInitStructure
    sdio_tf.o(i.cmdError) refers to stm32f4xx_sdio.o(i.SDIO_GetFlagStatus) for SDIO_GetFlagStatus
    sdio_tf.o(i.cmdError) refers to stm32f4xx_sdio.o(i.SDIO_ClearFlag) for SDIO_ClearFlag
    sdio_tf.o(i.cmdResp2Error) refers to stm32f4xx_sdio.o(i.SDIO_ClearFlag) for SDIO_ClearFlag
    sdio_tf.o(i.cmdResp3Error) refers to stm32f4xx_sdio.o(i.SDIO_ClearFlag) for SDIO_ClearFlag
    sdio_tf.o(i.cmdResp6Error) refers to stm32f4xx_sdio.o(i.SDIO_ClearFlag) for SDIO_ClearFlag
    sdio_tf.o(i.cmdResp6Error) refers to stm32f4xx_sdio.o(i.SDIO_GetCommandResponse) for SDIO_GetCommandResponse
    sdio_tf.o(i.cmdResp6Error) refers to stm32f4xx_sdio.o(i.SDIO_GetResponse) for SDIO_GetResponse
    sdio_tf.o(i.cmdResp7Error) refers to stm32f4xx_sdio.o(i.SDIO_ClearFlag) for SDIO_ClearFlag
    sdio_tf.o(i.sdEnWideBus) refers to stm32f4xx_sdio.o(i.SDIO_GetResponse) for SDIO_GetResponse
    sdio_tf.o(i.sdEnWideBus) refers to sdio_tf.o(i.FindSCR) for FindSCR
    sdio_tf.o(i.sdEnWideBus) refers to stm32f4xx_sdio.o(i.SDIO_SendCommand) for SDIO_SendCommand
    sdio_tf.o(i.sdEnWideBus) refers to sdio_tf.o(i.CmdResp1Error) for CmdResp1Error
    sdio_tf.o(i.sdEnWideBus) refers to sdio_tf.o(.data) for RCA
    sdio_tf.o(i.sdEnWideBus) refers to sdio_tf.o(.bss) for sdioCmdInitStructure
    sdio_test.o(i.SD_EraseTest) refers to sdio_tf.o(i.SD_Erase) for SD_Erase
    sdio_test.o(i.SD_EraseTest) refers to sdio_tf.o(i.SD_ReadMultiBlocks) for SD_ReadMultiBlocks
    sdio_test.o(i.SD_EraseTest) refers to sdio_tf.o(i.SD_WaitReadOperation) for SD_WaitReadOperation
    sdio_test.o(i.SD_EraseTest) refers to sdio_tf.o(i.SD_GetStatus) for SD_GetStatus
    sdio_test.o(i.SD_EraseTest) refers to sdio_test.o(i.eBuffercmp) for eBuffercmp
    sdio_test.o(i.SD_EraseTest) refers to sdio_test.o(.data) for Status
    sdio_test.o(i.SD_EraseTest) refers to sdio_test.o(.bss) for aBuffer_MultiBlock_Rx
    sdio_test.o(i.SD_MultiBlockTest) refers to sdio_test.o(i.Fill_Buffer) for Fill_Buffer
    sdio_test.o(i.SD_MultiBlockTest) refers to sdio_tf.o(i.SD_WriteMultiBlocks) for SD_WriteMultiBlocks
    sdio_test.o(i.SD_MultiBlockTest) refers to sdio_tf.o(i.SD_WaitWriteOperation) for SD_WaitWriteOperation
    sdio_test.o(i.SD_MultiBlockTest) refers to sdio_tf.o(i.SD_GetStatus) for SD_GetStatus
    sdio_test.o(i.SD_MultiBlockTest) refers to sdio_tf.o(i.SD_ReadMultiBlocks) for SD_ReadMultiBlocks
    sdio_test.o(i.SD_MultiBlockTest) refers to sdio_tf.o(i.SD_WaitReadOperation) for SD_WaitReadOperation
    sdio_test.o(i.SD_MultiBlockTest) refers to sdio_test.o(i.Buffercmp) for Buffercmp
    sdio_test.o(i.SD_MultiBlockTest) refers to sdio_test.o(.bss) for aBuffer_MultiBlock_Tx
    sdio_test.o(i.SD_MultiBlockTest) refers to sdio_test.o(.data) for Status
    sdio_test.o(i.SD_SingleBlockTest) refers to sdio_test.o(i.Fill_Buffer) for Fill_Buffer
    sdio_test.o(i.SD_SingleBlockTest) refers to sdio_tf.o(i.SD_WriteBlock) for SD_WriteBlock
    sdio_test.o(i.SD_SingleBlockTest) refers to sdio_tf.o(i.SD_WaitWriteOperation) for SD_WaitWriteOperation
    sdio_test.o(i.SD_SingleBlockTest) refers to sdio_tf.o(i.SD_GetStatus) for SD_GetStatus
    sdio_test.o(i.SD_SingleBlockTest) refers to sdio_tf.o(i.SD_ReadBlock) for SD_ReadBlock
    sdio_test.o(i.SD_SingleBlockTest) refers to sdio_tf.o(i.SD_WaitReadOperation) for SD_WaitReadOperation
    sdio_test.o(i.SD_SingleBlockTest) refers to sdio_test.o(i.Buffercmp) for Buffercmp
    sdio_test.o(i.SD_SingleBlockTest) refers to sdio_test.o(.bss) for aBuffer_Block_Tx
    sdio_test.o(i.SD_SingleBlockTest) refers to sdio_test.o(.data) for Status
    xbm_anti_trigonometric.o(i.xbm_atan2) refers to xbm_anti_trigonometric.o(i.xbm_atan) for xbm_atan
    main.o(i.delay_ms) refers to bsp.o(.bss) for bspData
    main.o(i.main) refers to os_core.o(i.OSInit) for OSInit
    main.o(i.main) refers to os_task.o(i.OSTaskCreate) for OSTaskCreate
    main.o(i.main) refers to os_core.o(i.OSStart) for OSStart
    main.o(i.main) refers to main.o(.bss) for appTaskStartStk
    main.o(i.main) refers to app.o(i.appTaskStart) for appTaskStart
    os_app_hooks.o(i.App_OS_ClrAllHooks) refers to cpu_a.o(.text) for CPU_SR_Save
    os_app_hooks.o(i.App_OS_ClrAllHooks) refers to cpu_core.o(i.CPU_IntDisMeasStart) for CPU_IntDisMeasStart
    os_app_hooks.o(i.App_OS_ClrAllHooks) refers to cpu_core.o(i.CPU_IntDisMeasStop) for CPU_IntDisMeasStop
    os_app_hooks.o(i.App_OS_ClrAllHooks) refers to os_var.o(.data) for OS_AppTaskCreateHookPtr
    os_app_hooks.o(i.App_OS_SetAllHooks) refers to cpu_a.o(.text) for CPU_SR_Save
    os_app_hooks.o(i.App_OS_SetAllHooks) refers to cpu_core.o(i.CPU_IntDisMeasStart) for CPU_IntDisMeasStart
    os_app_hooks.o(i.App_OS_SetAllHooks) refers to cpu_core.o(i.CPU_IntDisMeasStop) for CPU_IntDisMeasStop
    os_app_hooks.o(i.App_OS_SetAllHooks) refers to os_app_hooks.o(i.App_OS_TaskCreateHook) for App_OS_TaskCreateHook
    os_app_hooks.o(i.App_OS_SetAllHooks) refers to os_var.o(.data) for OS_AppTaskCreateHookPtr
    os_app_hooks.o(i.App_OS_SetAllHooks) refers to os_app_hooks.o(i.App_OS_TaskDelHook) for App_OS_TaskDelHook
    os_app_hooks.o(i.App_OS_SetAllHooks) refers to os_app_hooks.o(i.App_OS_TaskReturnHook) for App_OS_TaskReturnHook
    os_app_hooks.o(i.App_OS_SetAllHooks) refers to os_app_hooks.o(i.App_OS_IdleTaskHook) for App_OS_IdleTaskHook
    os_app_hooks.o(i.App_OS_SetAllHooks) refers to os_app_hooks.o(i.App_OS_StatTaskHook) for App_OS_StatTaskHook
    os_app_hooks.o(i.App_OS_SetAllHooks) refers to os_app_hooks.o(i.App_OS_TaskSwHook) for App_OS_TaskSwHook
    os_app_hooks.o(i.App_OS_SetAllHooks) refers to os_app_hooks.o(i.App_OS_TimeTickHook) for App_OS_TimeTickHook
    cpu_c.o(i.CPU_IntSrcDis) refers to cpu_a.o(.text) for CPU_SR_Save
    cpu_c.o(i.CPU_IntSrcDis) refers to cpu_core.o(i.CPU_IntDisMeasStart) for CPU_IntDisMeasStart
    cpu_c.o(i.CPU_IntSrcDis) refers to cpu_core.o(i.CPU_IntDisMeasStop) for CPU_IntDisMeasStop
    cpu_c.o(i.CPU_IntSrcEn) refers to cpu_a.o(.text) for CPU_SR_Save
    cpu_c.o(i.CPU_IntSrcEn) refers to cpu_core.o(i.CPU_IntDisMeasStart) for CPU_IntDisMeasStart
    cpu_c.o(i.CPU_IntSrcEn) refers to cpu_core.o(i.CPU_IntDisMeasStop) for CPU_IntDisMeasStop
    cpu_c.o(i.CPU_IntSrcPendClr) refers to cpu_a.o(.text) for CPU_SR_Save
    cpu_c.o(i.CPU_IntSrcPendClr) refers to cpu_core.o(i.CPU_IntDisMeasStart) for CPU_IntDisMeasStart
    cpu_c.o(i.CPU_IntSrcPendClr) refers to cpu_core.o(i.CPU_IntDisMeasStop) for CPU_IntDisMeasStop
    cpu_c.o(i.CPU_IntSrcPrioGet) refers to cpu_a.o(.text) for CPU_SR_Save
    cpu_c.o(i.CPU_IntSrcPrioGet) refers to cpu_core.o(i.CPU_IntDisMeasStart) for CPU_IntDisMeasStart
    cpu_c.o(i.CPU_IntSrcPrioGet) refers to cpu_core.o(i.CPU_IntDisMeasStop) for CPU_IntDisMeasStop
    cpu_c.o(i.CPU_IntSrcPrioSet) refers to cpu_a.o(.text) for CPU_SR_Save
    cpu_c.o(i.CPU_IntSrcPrioSet) refers to cpu_core.o(i.CPU_IntDisMeasStart) for CPU_IntDisMeasStart
    cpu_c.o(i.CPU_IntSrcPrioSet) refers to cpu_core.o(i.CPU_IntDisMeasStop) for CPU_IntDisMeasStop
    cpu_core.o(i.CPU_CntLeadZeros08) refers to cpu_a.o(.text) for CPU_CntLeadZeros
    cpu_core.o(i.CPU_CntLeadZeros16) refers to cpu_a.o(.text) for CPU_CntLeadZeros
    cpu_core.o(i.CPU_CntLeadZeros32) refers to cpu_a.o(.text) for CPU_CntLeadZeros
    cpu_core.o(i.CPU_CntLeadZeros64) refers to cpu_core.o(.constdata) for CPU_CntLeadZerosTbl
    cpu_core.o(i.CPU_CntTrailZeros08) refers to cpu_a.o(.text) for CPU_CntTrailZeros
    cpu_core.o(i.CPU_CntTrailZeros16) refers to cpu_a.o(.text) for CPU_CntTrailZeros
    cpu_core.o(i.CPU_CntTrailZeros32) refers to cpu_a.o(.text) for CPU_CntTrailZeros
    cpu_core.o(i.CPU_CntTrailZeros64) refers to cpu_core.o(i.CPU_CntLeadZeros64) for CPU_CntLeadZeros64
    cpu_core.o(i.CPU_Init) refers to cpu_core.o(i.CPU_TS_Init) for CPU_TS_Init
    cpu_core.o(i.CPU_Init) refers to cpu_core.o(i.CPU_IntDisMeasInit) for CPU_IntDisMeasInit
    cpu_core.o(i.CPU_Init) refers to cpu_core.o(i.CPU_NameInit) for CPU_NameInit
    cpu_core.o(i.CPU_IntDisMeasInit) refers to cpu_a.o(.text) for CPU_SR_Save
    cpu_core.o(i.CPU_IntDisMeasInit) refers to cpu_core.o(i.CPU_IntDisMeasStart) for CPU_IntDisMeasStart
    cpu_core.o(i.CPU_IntDisMeasInit) refers to cpu_core.o(i.CPU_IntDisMeasStop) for CPU_IntDisMeasStop
    cpu_core.o(i.CPU_IntDisMeasInit) refers to cpu_core.o(.data) for CPU_IntDisMeasCtr
    cpu_core.o(i.CPU_IntDisMeasMaxCalc) refers to cpu_core.o(.data) for CPU_IntDisMeasOvrhd_cnts
    cpu_core.o(i.CPU_IntDisMeasMaxCurGet) refers to cpu_a.o(.text) for CPU_SR_Save
    cpu_core.o(i.CPU_IntDisMeasMaxCurGet) refers to cpu_core.o(i.CPU_IntDisMeasMaxCalc) for CPU_IntDisMeasMaxCalc
    cpu_core.o(i.CPU_IntDisMeasMaxCurGet) refers to cpu_core.o(.data) for CPU_IntDisMeasMaxCur_cnts
    cpu_core.o(i.CPU_IntDisMeasMaxCurReset) refers to cpu_core.o(i.CPU_IntDisMeasMaxCurGet) for CPU_IntDisMeasMaxCurGet
    cpu_core.o(i.CPU_IntDisMeasMaxCurReset) refers to cpu_a.o(.text) for CPU_SR_Save
    cpu_core.o(i.CPU_IntDisMeasMaxCurReset) refers to cpu_core.o(.data) for CPU_IntDisMeasMaxCur_cnts
    cpu_core.o(i.CPU_IntDisMeasMaxGet) refers to cpu_a.o(.text) for CPU_SR_Save
    cpu_core.o(i.CPU_IntDisMeasMaxGet) refers to cpu_core.o(i.CPU_IntDisMeasMaxCalc) for CPU_IntDisMeasMaxCalc
    cpu_core.o(i.CPU_IntDisMeasMaxGet) refers to cpu_core.o(.data) for CPU_IntDisMeasMax_cnts
    cpu_core.o(i.CPU_IntDisMeasStart) refers to bsp.o(i.CPU_TS_TmrRd) for CPU_TS_TmrRd
    cpu_core.o(i.CPU_IntDisMeasStart) refers to cpu_core.o(.data) for CPU_IntDisMeasCtr
    cpu_core.o(i.CPU_IntDisMeasStop) refers to bsp.o(i.CPU_TS_TmrRd) for CPU_TS_TmrRd
    cpu_core.o(i.CPU_IntDisMeasStop) refers to cpu_core.o(.data) for CPU_IntDisNestCtr
    cpu_core.o(i.CPU_NameClr) refers to cpu_a.o(.text) for CPU_SR_Save
    cpu_core.o(i.CPU_NameClr) refers to cpu_core.o(i.CPU_IntDisMeasStart) for CPU_IntDisMeasStart
    cpu_core.o(i.CPU_NameClr) refers to lib_mem.o(i.Mem_Clr) for Mem_Clr
    cpu_core.o(i.CPU_NameClr) refers to cpu_core.o(i.CPU_IntDisMeasStop) for CPU_IntDisMeasStop
    cpu_core.o(i.CPU_NameClr) refers to cpu_core.o(.bss) for CPU_Name
    cpu_core.o(i.CPU_NameGet) refers to cpu_core.o(i.CPU_SW_Exception) for CPU_SW_Exception
    cpu_core.o(i.CPU_NameGet) refers to cpu_a.o(.text) for CPU_SR_Save
    cpu_core.o(i.CPU_NameGet) refers to cpu_core.o(i.CPU_IntDisMeasStart) for CPU_IntDisMeasStart
    cpu_core.o(i.CPU_NameGet) refers to lib_str.o(i.Str_Copy_N) for Str_Copy_N
    cpu_core.o(i.CPU_NameGet) refers to cpu_core.o(i.CPU_IntDisMeasStop) for CPU_IntDisMeasStop
    cpu_core.o(i.CPU_NameGet) refers to cpu_core.o(.bss) for CPU_Name
    cpu_core.o(i.CPU_NameInit) refers to cpu_core.o(i.CPU_NameClr) for CPU_NameClr
    cpu_core.o(i.CPU_NameSet) refers to cpu_core.o(i.CPU_SW_Exception) for CPU_SW_Exception
    cpu_core.o(i.CPU_NameSet) refers to lib_str.o(i.Str_Len_N) for Str_Len_N
    cpu_core.o(i.CPU_NameSet) refers to cpu_a.o(.text) for CPU_SR_Save
    cpu_core.o(i.CPU_NameSet) refers to cpu_core.o(i.CPU_IntDisMeasStart) for CPU_IntDisMeasStart
    cpu_core.o(i.CPU_NameSet) refers to lib_str.o(i.Str_Copy_N) for Str_Copy_N
    cpu_core.o(i.CPU_NameSet) refers to cpu_core.o(i.CPU_IntDisMeasStop) for CPU_IntDisMeasStop
    cpu_core.o(i.CPU_NameSet) refers to cpu_core.o(.bss) for CPU_Name
    cpu_core.o(i.CPU_TS_Get32) refers to bsp.o(i.CPU_TS_TmrRd) for CPU_TS_TmrRd
    cpu_core.o(i.CPU_TS_Init) refers to bsp.o(i.CPU_TS_TmrInit) for CPU_TS_TmrInit
    cpu_core.o(i.CPU_TS_Init) refers to cpu_core.o(.data) for CPU_TS_TmrFreq_Hz
    cpu_core.o(i.CPU_TS_TmrFreqGet) refers to cpu_core.o(i.CPU_SW_Exception) for CPU_SW_Exception
    cpu_core.o(i.CPU_TS_TmrFreqGet) refers to cpu_core.o(.data) for CPU_TS_TmrFreq_Hz
    cpu_core.o(i.CPU_TS_TmrFreqSet) refers to cpu_core.o(.data) for CPU_TS_TmrFreq_Hz
    lib_ascii.o(i.ASCII_Cmp) refers to lib_ascii.o(i.ASCII_ToUpper) for ASCII_ToUpper
    lib_math.o(i.Math_Init) refers to lib_math.o(i.Math_RandSetSeed) for Math_RandSetSeed
    lib_math.o(i.Math_Rand) refers to cpu_a.o(.text) for CPU_SR_Save
    lib_math.o(i.Math_Rand) refers to cpu_core.o(i.CPU_IntDisMeasStart) for CPU_IntDisMeasStart
    lib_math.o(i.Math_Rand) refers to lib_math.o(i.Math_RandSeed) for Math_RandSeed
    lib_math.o(i.Math_Rand) refers to cpu_core.o(i.CPU_IntDisMeasStop) for CPU_IntDisMeasStop
    lib_math.o(i.Math_Rand) refers to lib_math.o(.data) for Math_RandSeedCur
    lib_math.o(i.Math_RandSetSeed) refers to cpu_a.o(.text) for CPU_SR_Save
    lib_math.o(i.Math_RandSetSeed) refers to cpu_core.o(i.CPU_IntDisMeasStart) for CPU_IntDisMeasStart
    lib_math.o(i.Math_RandSetSeed) refers to cpu_core.o(i.CPU_IntDisMeasStop) for CPU_IntDisMeasStop
    lib_math.o(i.Math_RandSetSeed) refers to lib_math.o(.data) for Math_RandSeedCur
    lib_mem.o(i.Mem_Clr) refers to lib_mem.o(i.Mem_Set) for Mem_Set
    lib_mem.o(i.Mem_DynPoolBlkFree) refers to cpu_a.o(.text) for CPU_SR_Save
    lib_mem.o(i.Mem_DynPoolBlkFree) refers to cpu_core.o(i.CPU_IntDisMeasStart) for CPU_IntDisMeasStart
    lib_mem.o(i.Mem_DynPoolBlkFree) refers to cpu_core.o(i.CPU_IntDisMeasStop) for CPU_IntDisMeasStop
    lib_mem.o(i.Mem_DynPoolBlkGet) refers to cpu_a.o(.text) for CPU_SR_Save
    lib_mem.o(i.Mem_DynPoolBlkGet) refers to cpu_core.o(i.CPU_IntDisMeasStart) for CPU_IntDisMeasStart
    lib_mem.o(i.Mem_DynPoolBlkGet) refers to cpu_core.o(i.CPU_IntDisMeasStop) for CPU_IntDisMeasStop
    lib_mem.o(i.Mem_DynPoolBlkGet) refers to lib_mem.o(i.Mem_SegAllocInternal) for Mem_SegAllocInternal
    lib_mem.o(i.Mem_DynPoolBlkNbrAvailGet) refers to cpu_a.o(.text) for CPU_SR_Save
    lib_mem.o(i.Mem_DynPoolBlkNbrAvailGet) refers to cpu_core.o(i.CPU_IntDisMeasStart) for CPU_IntDisMeasStart
    lib_mem.o(i.Mem_DynPoolBlkNbrAvailGet) refers to cpu_core.o(i.CPU_IntDisMeasStop) for CPU_IntDisMeasStop
    lib_mem.o(i.Mem_DynPoolCreate) refers to lib_mem.o(i.Mem_DynPoolCreateInternal) for Mem_DynPoolCreateInternal
    lib_mem.o(i.Mem_DynPoolCreate) refers to lib_mem.o(.bss) for Mem_SegHeap
    lib_mem.o(i.Mem_DynPoolCreateHW) refers to lib_mem.o(i.Mem_DynPoolCreateInternal) for Mem_DynPoolCreateInternal
    lib_mem.o(i.Mem_DynPoolCreateHW) refers to lib_mem.o(.bss) for Mem_SegHeap
    lib_mem.o(i.Mem_DynPoolCreateInternal) refers to lib_mem.o(i.Mem_SegAllocInternal) for Mem_SegAllocInternal
    lib_mem.o(i.Mem_HeapAlloc) refers to lib_mem.o(i.Mem_SegAllocInternal) for Mem_SegAllocInternal
    lib_mem.o(i.Mem_HeapAlloc) refers to lib_mem.o(.bss) for Mem_SegHeap
    lib_mem.o(i.Mem_HeapGetSizeRem) refers to lib_mem.o(i.Mem_SegRemSizeGet) for Mem_SegRemSizeGet
    lib_mem.o(i.Mem_HeapGetSizeRem) refers to lib_mem.o(.bss) for Mem_SegHeap
    lib_mem.o(i.Mem_Init) refers to lib_mem.o(i.Mem_SegCreate) for Mem_SegCreate
    lib_mem.o(i.Mem_Init) refers to cpu_core.o(i.CPU_SW_Exception) for CPU_SW_Exception
    lib_mem.o(i.Mem_Init) refers to lib_mem.o(.data) for Mem_SegHeadPtr
    lib_mem.o(i.Mem_Init) refers to lib_mem.o(.bss) for Mem_Heap
    lib_mem.o(i.Mem_Move) refers to lib_mem_a.o(.text) for Mem_Copy
    lib_mem.o(i.Mem_PoolBlkFree) refers to cpu_a.o(.text) for CPU_SR_Save
    lib_mem.o(i.Mem_PoolBlkFree) refers to cpu_core.o(i.CPU_IntDisMeasStart) for CPU_IntDisMeasStart
    lib_mem.o(i.Mem_PoolBlkFree) refers to cpu_core.o(i.CPU_IntDisMeasStop) for CPU_IntDisMeasStop
    lib_mem.o(i.Mem_PoolBlkGet) refers to cpu_a.o(.text) for CPU_SR_Save
    lib_mem.o(i.Mem_PoolBlkGet) refers to cpu_core.o(i.CPU_IntDisMeasStart) for CPU_IntDisMeasStart
    lib_mem.o(i.Mem_PoolBlkGet) refers to cpu_core.o(i.CPU_IntDisMeasStop) for CPU_IntDisMeasStop
    lib_mem.o(i.Mem_PoolBlkGetNbrAvail) refers to cpu_a.o(.text) for CPU_SR_Save
    lib_mem.o(i.Mem_PoolBlkGetNbrAvail) refers to cpu_core.o(i.CPU_IntDisMeasStart) for CPU_IntDisMeasStart
    lib_mem.o(i.Mem_PoolBlkGetNbrAvail) refers to cpu_core.o(i.CPU_IntDisMeasStop) for CPU_IntDisMeasStop
    lib_mem.o(i.Mem_PoolCreate) refers to lib_mem.o(i.Mem_PoolClr) for Mem_PoolClr
    lib_mem.o(i.Mem_PoolCreate) refers to cpu_a.o(.text) for CPU_SR_Save
    lib_mem.o(i.Mem_PoolCreate) refers to cpu_core.o(i.CPU_IntDisMeasStart) for CPU_IntDisMeasStart
    lib_mem.o(i.Mem_PoolCreate) refers to lib_mem.o(i.Mem_SegOverlapChkCritical) for Mem_SegOverlapChkCritical
    lib_mem.o(i.Mem_PoolCreate) refers to lib_mem.o(i.Mem_SegAllocExtCritical) for Mem_SegAllocExtCritical
    lib_mem.o(i.Mem_PoolCreate) refers to cpu_core.o(i.CPU_IntDisMeasStop) for CPU_IntDisMeasStop
    lib_mem.o(i.Mem_PoolCreate) refers to lib_mem.o(i.Mem_SegCreateCritical) for Mem_SegCreateCritical
    lib_mem.o(i.Mem_PoolCreate) refers to lib_mem.o(i.Mem_SegAllocInternal) for Mem_SegAllocInternal
    lib_mem.o(i.Mem_PoolCreate) refers to lib_mem.o(.bss) for Mem_SegHeap
    lib_mem.o(i.Mem_SegAlloc) refers to lib_mem.o(i.Mem_SegAllocInternal) for Mem_SegAllocInternal
    lib_mem.o(i.Mem_SegAlloc) refers to lib_mem.o(.bss) for Mem_SegHeap
    lib_mem.o(i.Mem_SegAllocExt) refers to lib_mem.o(i.Mem_SegAllocInternal) for Mem_SegAllocInternal
    lib_mem.o(i.Mem_SegAllocExt) refers to lib_mem.o(.bss) for Mem_SegHeap
    lib_mem.o(i.Mem_SegAllocHW) refers to lib_mem.o(i.Mem_SegAllocInternal) for Mem_SegAllocInternal
    lib_mem.o(i.Mem_SegAllocHW) refers to lib_mem.o(.bss) for Mem_SegHeap
    lib_mem.o(i.Mem_SegAllocInternal) refers to cpu_a.o(.text) for CPU_SR_Save
    lib_mem.o(i.Mem_SegAllocInternal) refers to cpu_core.o(i.CPU_IntDisMeasStart) for CPU_IntDisMeasStart
    lib_mem.o(i.Mem_SegAllocInternal) refers to lib_mem.o(i.Mem_SegAllocExtCritical) for Mem_SegAllocExtCritical
    lib_mem.o(i.Mem_SegAllocInternal) refers to cpu_core.o(i.CPU_IntDisMeasStop) for CPU_IntDisMeasStop
    lib_mem.o(i.Mem_SegClr) refers to cpu_a.o(.text) for CPU_SR_Save
    lib_mem.o(i.Mem_SegClr) refers to cpu_core.o(i.CPU_IntDisMeasStart) for CPU_IntDisMeasStart
    lib_mem.o(i.Mem_SegClr) refers to cpu_core.o(i.CPU_IntDisMeasStop) for CPU_IntDisMeasStop
    lib_mem.o(i.Mem_SegCreate) refers to cpu_a.o(.text) for CPU_SR_Save
    lib_mem.o(i.Mem_SegCreate) refers to cpu_core.o(i.CPU_IntDisMeasStart) for CPU_IntDisMeasStart
    lib_mem.o(i.Mem_SegCreate) refers to lib_mem.o(i.Mem_SegCreateCritical) for Mem_SegCreateCritical
    lib_mem.o(i.Mem_SegCreate) refers to cpu_core.o(i.CPU_IntDisMeasStop) for CPU_IntDisMeasStop
    lib_mem.o(i.Mem_SegCreateCritical) refers to lib_mem.o(.data) for Mem_SegHeadPtr
    lib_mem.o(i.Mem_SegOverlapChkCritical) refers to lib_mem.o(.data) for Mem_SegHeadPtr
    lib_mem.o(i.Mem_SegRemSizeGet) refers to cpu_a.o(.text) for CPU_SR_Save
    lib_mem.o(i.Mem_SegRemSizeGet) refers to cpu_core.o(i.CPU_IntDisMeasStart) for CPU_IntDisMeasStart
    lib_mem.o(i.Mem_SegRemSizeGet) refers to cpu_core.o(i.CPU_IntDisMeasStop) for CPU_IntDisMeasStop
    lib_mem.o(i.Mem_SegRemSizeGet) refers to lib_mem.o(.bss) for Mem_SegHeap
    lib_str.o(i.Str_Cat) refers to lib_str.o(i.Str_Cat_N) for Str_Cat_N
    lib_str.o(i.Str_Char) refers to lib_str.o(i.Str_Char_N) for Str_Char_N
    lib_str.o(i.Str_Char_Last) refers to lib_str.o(i.Str_Char_Last_N) for Str_Char_Last_N
    lib_str.o(i.Str_Char_Last_N) refers to lib_str.o(i.Str_Len_N) for Str_Len_N
    lib_str.o(i.Str_Char_Replace) refers to lib_str.o(i.Str_Char_Replace_N) for Str_Char_Replace_N
    lib_str.o(i.Str_Cmp) refers to lib_str.o(i.Str_Cmp_N) for Str_Cmp_N
    lib_str.o(i.Str_CmpIgnoreCase) refers to lib_str.o(i.Str_CmpIgnoreCase_N) for Str_CmpIgnoreCase_N
    lib_str.o(i.Str_CmpIgnoreCase_N) refers to lib_ascii.o(i.ASCII_ToLower) for ASCII_ToLower
    lib_str.o(i.Str_Copy) refers to lib_str.o(i.Str_Copy_N) for Str_Copy_N
    lib_str.o(i.Str_FmtNbr_Int32) refers to lib_ascii.o(i.ASCII_IsPrint) for ASCII_IsPrint
    lib_str.o(i.Str_FmtNbr_Int32S) refers to lib_str.o(i.Str_FmtNbr_Int32) for Str_FmtNbr_Int32
    lib_str.o(i.Str_FmtNbr_Int32U) refers to lib_str.o(i.Str_FmtNbr_Int32) for Str_FmtNbr_Int32
    lib_str.o(i.Str_Len) refers to lib_str.o(i.Str_Len_N) for Str_Len_N
    lib_str.o(i.Str_ParseNbr_Int32) refers to lib_ascii.o(i.ASCII_IsSpace) for ASCII_IsSpace
    lib_str.o(i.Str_ParseNbr_Int32) refers to lib_ascii.o(i.ASCII_IsDigHex) for ASCII_IsDigHex
    lib_str.o(i.Str_ParseNbr_Int32) refers to lib_ascii.o(i.ASCII_IsAlphaNum) for ASCII_IsAlphaNum
    lib_str.o(i.Str_ParseNbr_Int32) refers to lib_ascii.o(i.ASCII_IsDig) for ASCII_IsDig
    lib_str.o(i.Str_ParseNbr_Int32) refers to lib_ascii.o(i.ASCII_IsLower) for ASCII_IsLower
    lib_str.o(i.Str_ParseNbr_Int32) refers to lib_str.o(.constdata) for Str_MultOvfThTbl_Int32U
    lib_str.o(i.Str_ParseNbr_Int32S) refers to lib_str.o(i.Str_ParseNbr_Int32) for Str_ParseNbr_Int32
    lib_str.o(i.Str_ParseNbr_Int32U) refers to lib_str.o(i.Str_ParseNbr_Int32) for Str_ParseNbr_Int32
    lib_str.o(i.Str_Str) refers to lib_str.o(i.Str_Str_N) for Str_Str_N
    lib_str.o(i.Str_Str_N) refers to lib_str.o(i.Str_Len_N) for Str_Len_N
    lib_str.o(i.Str_Str_N) refers to lib_str.o(i.Str_Cmp_N) for Str_Cmp_N
    os_cfg_app.o(.constdata) refers to os_cfg_app.o(.bss) for OSCfg_IdleTaskStk
    os_core.o(i.OSInit) refers to os_cpu_c.o(i.OSInitHook) for OSInitHook
    os_core.o(i.OSInit) refers to os_prio.o(i.OS_PrioInit) for OS_PrioInit
    os_core.o(i.OSInit) refers to os_core.o(i.OS_RdyListInit) for OS_RdyListInit
    os_core.o(i.OSInit) refers to os_flag.o(i.OS_FlagInit) for OS_FlagInit
    os_core.o(i.OSInit) refers to os_mem.o(i.OS_MemInit) for OS_MemInit
    os_core.o(i.OSInit) refers to os_msg.o(i.OS_MsgPoolInit) for OS_MsgPoolInit
    os_core.o(i.OSInit) refers to os_mutex.o(i.OS_MutexInit) for OS_MutexInit
    os_core.o(i.OSInit) refers to os_q.o(i.OS_QInit) for OS_QInit
    os_core.o(i.OSInit) refers to os_sem.o(i.OS_SemInit) for OS_SemInit
    os_core.o(i.OSInit) refers to os_task.o(i.OS_TaskInit) for OS_TaskInit
    os_core.o(i.OSInit) refers to os_core.o(i.OS_IdleTaskInit) for OS_IdleTaskInit
    os_core.o(i.OSInit) refers to os_tick.o(i.OS_TickTaskInit) for OS_TickTaskInit
    os_core.o(i.OSInit) refers to os_stat.o(i.OS_StatTaskInit) for OS_StatTaskInit
    os_core.o(i.OSInit) refers to os_tmr.o(i.OS_TmrInit) for OS_TmrInit
    os_core.o(i.OSInit) refers to os_dbg.o(i.OS_Dbg_Init) for OS_Dbg_Init
    os_core.o(i.OSInit) refers to os_cfg_app.o(i.OSCfg_Init) for OSCfg_Init
    os_core.o(i.OSInit) refers to os_var.o(.data) for OSIntNestingCtr
    os_core.o(i.OSInit) refers to os_cfg_app.o(.constdata) for OSCfg_ISRStkSize
    os_core.o(i.OSIntEnter) refers to os_var.o(.data) for OSRunning
    os_core.o(i.OSIntExit) refers to cpu_a.o(.text) for CPU_SR_Save
    os_core.o(i.OSIntExit) refers to os_prio.o(i.OS_PrioGetHighest) for OS_PrioGetHighest
    os_core.o(i.OSIntExit) refers to os_cpu_a.o(CODE) for OSIntCtxSw
    os_core.o(i.OSIntExit) refers to os_var.o(.data) for OSRunning
    os_core.o(i.OSIntExit) refers to os_var.o(.bss) for OSRdyList
    os_core.o(i.OSSched) refers to cpu_a.o(.text) for CPU_SR_Save
    os_core.o(i.OSSched) refers to os_prio.o(i.OS_PrioGetHighest) for OS_PrioGetHighest
    os_core.o(i.OSSched) refers to os_cpu_a.o(CODE) for OSCtxSw
    os_core.o(i.OSSched) refers to os_var.o(.data) for OSIntNestingCtr
    os_core.o(i.OSSched) refers to os_var.o(.bss) for OSRdyList
    os_core.o(i.OSSchedLock) refers to cpu_a.o(.text) for CPU_SR_Save
    os_core.o(i.OSSchedLock) refers to cpu_core.o(i.CPU_IntDisMeasStart) for CPU_IntDisMeasStart
    os_core.o(i.OSSchedLock) refers to cpu_core.o(i.CPU_IntDisMeasStop) for CPU_IntDisMeasStop
    os_core.o(i.OSSchedLock) refers to os_var.o(.data) for OSRunning
    os_core.o(i.OSSchedUnlock) refers to cpu_a.o(.text) for CPU_SR_Save
    os_core.o(i.OSSchedUnlock) refers to cpu_core.o(i.CPU_IntDisMeasStart) for CPU_IntDisMeasStart
    os_core.o(i.OSSchedUnlock) refers to cpu_core.o(i.CPU_IntDisMeasStop) for CPU_IntDisMeasStop
    os_core.o(i.OSSchedUnlock) refers to os_core.o(i.OSSched) for OSSched
    os_core.o(i.OSSchedUnlock) refers to os_var.o(.data) for OSRunning
    os_core.o(i.OSStart) refers to os_prio.o(i.OS_PrioGetHighest) for OS_PrioGetHighest
    os_core.o(i.OSStart) refers to os_cpu_a.o(CODE) for OSStartHighRdy
    os_core.o(i.OSStart) refers to os_var.o(.data) for OSRunning
    os_core.o(i.OSStart) refers to os_var.o(.bss) for OSRdyList
    os_core.o(i.OS_IdleTask) refers to cpu_a.o(.text) for CPU_SR_Save
    os_core.o(i.OS_IdleTask) refers to cpu_core.o(i.CPU_IntDisMeasStart) for CPU_IntDisMeasStart
    os_core.o(i.OS_IdleTask) refers to cpu_core.o(i.CPU_IntDisMeasStop) for CPU_IntDisMeasStop
    os_core.o(i.OS_IdleTask) refers to os_cpu_c.o(i.OSIdleTaskHook) for OSIdleTaskHook
    os_core.o(i.OS_IdleTask) refers to os_var.o(.data) for OSIdleTaskCtr
    os_core.o(i.OS_IdleTaskInit) refers to os_task.o(i.OSTaskCreate) for OSTaskCreate
    os_core.o(i.OS_IdleTaskInit) refers to os_var.o(.data) for OSIdleTaskCtr
    os_core.o(i.OS_IdleTaskInit) refers to os_cfg_app.o(.constdata) for OSCfg_IdleTaskStkSize
    os_core.o(i.OS_IdleTaskInit) refers to os_core.o(i.OS_IdleTask) for OS_IdleTask
    os_core.o(i.OS_IdleTaskInit) refers to os_var.o(.bss) for OSIdleTaskTCB
    os_core.o(i.OS_Pend) refers to os_core.o(i.OS_TaskBlock) for OS_TaskBlock
    os_core.o(i.OS_Pend) refers to os_core.o(i.OS_PendDataInit) for OS_PendDataInit
    os_core.o(i.OS_Pend) refers to os_core.o(i.OS_PendListInsertPrio) for OS_PendListInsertPrio
    os_core.o(i.OS_Pend) refers to os_core.o(i.OS_PendDbgNameAdd) for OS_PendDbgNameAdd
    os_core.o(i.OS_Pend) refers to os_var.o(.data) for OSTCBCurPtr
    os_core.o(i.OS_PendAbort) refers to os_core.o(i.OS_PendAbort1) for OS_PendAbort1
    os_core.o(i.OS_PendAbort) refers to os_core.o(i.OS_PendListRemove) for OS_PendListRemove
    os_core.o(i.OS_PendAbort) refers to os_tick.o(i.OS_TickListRemove) for OS_TickListRemove
    os_core.o(i.OS_PendAbort) refers to os_core.o(i.OS_RdyListInsert) for OS_RdyListInsert
    os_core.o(i.OS_PendListChangePrio) refers to os_core.o(i.OS_PendListRemove1) for OS_PendListRemove1
    os_core.o(i.OS_PendListChangePrio) refers to os_core.o(i.OS_PendListInsertPrio) for OS_PendListInsertPrio
    os_core.o(i.OS_PendListRemove) refers to os_core.o(i.OS_PendListRemove1) for OS_PendListRemove1
    os_core.o(i.OS_PendObjDel) refers to os_core.o(i.OS_PendObjDel1) for OS_PendObjDel1
    os_core.o(i.OS_PendObjDel) refers to os_core.o(i.OS_PendListRemove) for OS_PendListRemove
    os_core.o(i.OS_PendObjDel) refers to os_tick.o(i.OS_TickListRemove) for OS_TickListRemove
    os_core.o(i.OS_PendObjDel) refers to os_core.o(i.OS_RdyListInsert) for OS_RdyListInsert
    os_core.o(i.OS_Post) refers to os_core.o(i.OS_Post1) for OS_Post1
    os_core.o(i.OS_Post) refers to os_core.o(i.OS_PendListRemove) for OS_PendListRemove
    os_core.o(i.OS_Post) refers to os_core.o(i.OS_PendDbgNameRemove) for OS_PendDbgNameRemove
    os_core.o(i.OS_Post) refers to os_tick.o(i.OS_TickListRemove) for OS_TickListRemove
    os_core.o(i.OS_Post) refers to os_core.o(i.OS_RdyListInsert) for OS_RdyListInsert
    os_core.o(i.OS_RdyListInit) refers to os_var.o(.bss) for OSRdyList
    os_core.o(i.OS_RdyListInsert) refers to os_prio.o(i.OS_PrioInsert) for OS_PrioInsert
    os_core.o(i.OS_RdyListInsert) refers to os_core.o(i.OS_RdyListInsertTail) for OS_RdyListInsertTail
    os_core.o(i.OS_RdyListInsert) refers to os_core.o(i.OS_RdyListInsertHead) for OS_RdyListInsertHead
    os_core.o(i.OS_RdyListInsert) refers to os_var.o(.data) for OSPrioCur
    os_core.o(i.OS_RdyListInsertHead) refers to os_var.o(.bss) for OSRdyList
    os_core.o(i.OS_RdyListInsertTail) refers to os_var.o(.bss) for OSRdyList
    os_core.o(i.OS_RdyListRemove) refers to os_prio.o(i.OS_PrioRemove) for OS_PrioRemove
    os_core.o(i.OS_RdyListRemove) refers to os_var.o(.bss) for OSRdyList
    os_core.o(i.OS_TaskBlock) refers to os_tick.o(i.OS_TickListInsert) for OS_TickListInsert
    os_core.o(i.OS_TaskBlock) refers to os_core.o(i.OS_RdyListRemove) for OS_RdyListRemove
    os_core.o(i.OS_TaskBlock) refers to os_var.o(.data) for OSTickListTimeout
    os_cpu_c.o(i.OSIdleTaskHook) refers to os_var.o(.data) for OS_AppIdleTaskHookPtr
    os_cpu_c.o(i.OSInitHook) refers to os_cfg_app.o(.constdata) for OSCfg_ISRStkBasePtr
    os_cpu_c.o(i.OSInitHook) refers to os_cpu_c.o(.data) for OS_CPU_ExceptStkBase
    os_cpu_c.o(i.OSStatTaskHook) refers to os_var.o(.data) for OS_AppStatTaskHookPtr
    os_cpu_c.o(i.OSTaskCreateHook) refers to os_var.o(.data) for OS_AppTaskCreateHookPtr
    os_cpu_c.o(i.OSTaskDelHook) refers to os_var.o(.data) for OS_AppTaskDelHookPtr
    os_cpu_c.o(i.OSTaskReturnHook) refers to os_var.o(.data) for OS_AppTaskReturnHookPtr
    os_cpu_c.o(i.OSTaskStkInit) refers to os_task.o(i.OS_TaskReturn) for OS_TaskReturn
    os_cpu_c.o(i.OSTaskSwHook) refers to os_cpu_a.o(CODE) for OS_CPU_FP_Reg_Push
    os_cpu_c.o(i.OSTaskSwHook) refers to bsp.o(i.CPU_TS_TmrRd) for CPU_TS_TmrRd
    os_cpu_c.o(i.OSTaskSwHook) refers to cpu_core.o(i.CPU_IntDisMeasMaxCurReset) for CPU_IntDisMeasMaxCurReset
    os_cpu_c.o(i.OSTaskSwHook) refers to os_var.o(.data) for OSTCBCurPtr
    os_cpu_c.o(i.OSTimeTickHook) refers to os_var.o(.data) for OS_AppTimeTickHookPtr
    os_cpu_c.o(i.OS_CPU_SysTickHandler) refers to cpu_a.o(.text) for CPU_SR_Save
    os_cpu_c.o(i.OS_CPU_SysTickHandler) refers to cpu_core.o(i.CPU_IntDisMeasStart) for CPU_IntDisMeasStart
    os_cpu_c.o(i.OS_CPU_SysTickHandler) refers to cpu_core.o(i.CPU_IntDisMeasStop) for CPU_IntDisMeasStop
    os_cpu_c.o(i.OS_CPU_SysTickHandler) refers to os_time.o(i.OSTimeTick) for OSTimeTick
    os_cpu_c.o(i.OS_CPU_SysTickHandler) refers to os_core.o(i.OSIntExit) for OSIntExit
    os_cpu_c.o(i.OS_CPU_SysTickHandler) refers to os_var.o(.data) for OSIntNestingCtr
    os_dbg.o(i.OS_Dbg_Init) refers to os_dbg.o(.constdata) for OSDbg_DbgEn
    os_flag.o(i.OSFlagCreate) refers to cpu_a.o(.text) for CPU_SR_Save
    os_flag.o(i.OSFlagCreate) refers to cpu_core.o(i.CPU_IntDisMeasStart) for CPU_IntDisMeasStart
    os_flag.o(i.OSFlagCreate) refers to os_core.o(i.OS_PendListInit) for OS_PendListInit
    os_flag.o(i.OSFlagCreate) refers to os_flag.o(i.OS_FlagDbgListAdd) for OS_FlagDbgListAdd
    os_flag.o(i.OSFlagCreate) refers to cpu_core.o(i.CPU_IntDisMeasStop) for CPU_IntDisMeasStop
    os_flag.o(i.OSFlagCreate) refers to os_var.o(.data) for OSFlagQty
    os_flag.o(i.OSFlagPend) refers to cpu_a.o(.text) for CPU_SR_Save
    os_flag.o(i.OSFlagPend) refers to cpu_core.o(i.CPU_IntDisMeasStart) for CPU_IntDisMeasStart
    os_flag.o(i.OSFlagPend) refers to cpu_core.o(i.CPU_IntDisMeasStop) for CPU_IntDisMeasStop
    os_flag.o(i.OSFlagPend) refers to os_flag.o(i.OS_FlagBlock) for OS_FlagBlock
    os_flag.o(i.OSFlagPend) refers to os_core.o(i.OSSched) for OSSched
    os_flag.o(i.OSFlagPend) refers to os_var.o(.data) for OSTCBCurPtr
    os_flag.o(i.OSFlagPendGetFlagsRdy) refers to cpu_a.o(.text) for CPU_SR_Save
    os_flag.o(i.OSFlagPendGetFlagsRdy) refers to cpu_core.o(i.CPU_IntDisMeasStart) for CPU_IntDisMeasStart
    os_flag.o(i.OSFlagPendGetFlagsRdy) refers to cpu_core.o(i.CPU_IntDisMeasStop) for CPU_IntDisMeasStop
    os_flag.o(i.OSFlagPendGetFlagsRdy) refers to os_var.o(.data) for OSTCBCurPtr
    os_flag.o(i.OSFlagPost) refers to bsp.o(i.CPU_TS_TmrRd) for CPU_TS_TmrRd
    os_flag.o(i.OSFlagPost) refers to os_flag.o(i.OS_FlagPost) for OS_FlagPost
    os_flag.o(i.OS_FlagBlock) refers to os_core.o(i.OS_Pend) for OS_Pend
    os_flag.o(i.OS_FlagBlock) refers to os_var.o(.data) for OSTCBCurPtr
    os_flag.o(i.OS_FlagClr) refers to os_core.o(i.OS_PendListInit) for OS_PendListInit
    os_flag.o(i.OS_FlagDbgListAdd) refers to os_var.o(.data) for OSFlagDbgListPtr
    os_flag.o(i.OS_FlagDbgListRemove) refers to os_var.o(.data) for OSFlagDbgListPtr
    os_flag.o(i.OS_FlagInit) refers to os_var.o(.data) for OSFlagDbgListPtr
    os_flag.o(i.OS_FlagPost) refers to cpu_a.o(.text) for CPU_SR_Save
    os_flag.o(i.OS_FlagPost) refers to cpu_core.o(i.CPU_IntDisMeasStart) for CPU_IntDisMeasStart
    os_flag.o(i.OS_FlagPost) refers to cpu_core.o(i.CPU_IntDisMeasStop) for CPU_IntDisMeasStop
    os_flag.o(i.OS_FlagPost) refers to os_flag.o(i.OS_FlagTaskRdy) for OS_FlagTaskRdy
    os_flag.o(i.OS_FlagPost) refers to os_core.o(i.OSSched) for OSSched
    os_flag.o(i.OS_FlagTaskRdy) refers to os_tick.o(i.OS_TickListRemove) for OS_TickListRemove
    os_flag.o(i.OS_FlagTaskRdy) refers to os_core.o(i.OS_RdyListInsert) for OS_RdyListInsert
    os_flag.o(i.OS_FlagTaskRdy) refers to os_core.o(i.OS_PendListRemove) for OS_PendListRemove
    os_mem.o(i.OSMemCreate) refers to cpu_a.o(.text) for CPU_SR_Save
    os_mem.o(i.OSMemCreate) refers to cpu_core.o(i.CPU_IntDisMeasStart) for CPU_IntDisMeasStart
    os_mem.o(i.OSMemCreate) refers to os_mem.o(i.OS_MemDbgListAdd) for OS_MemDbgListAdd
    os_mem.o(i.OSMemCreate) refers to cpu_core.o(i.CPU_IntDisMeasStop) for CPU_IntDisMeasStop
    os_mem.o(i.OSMemCreate) refers to os_var.o(.data) for OSMemQty
    os_mem.o(i.OSMemGet) refers to cpu_a.o(.text) for CPU_SR_Save
    os_mem.o(i.OSMemGet) refers to cpu_core.o(i.CPU_IntDisMeasStart) for CPU_IntDisMeasStart
    os_mem.o(i.OSMemGet) refers to cpu_core.o(i.CPU_IntDisMeasStop) for CPU_IntDisMeasStop
    os_mem.o(i.OSMemPut) refers to cpu_a.o(.text) for CPU_SR_Save
    os_mem.o(i.OSMemPut) refers to cpu_core.o(i.CPU_IntDisMeasStart) for CPU_IntDisMeasStart
    os_mem.o(i.OSMemPut) refers to cpu_core.o(i.CPU_IntDisMeasStop) for CPU_IntDisMeasStop
    os_mem.o(i.OS_MemDbgListAdd) refers to os_var.o(.data) for OSMemDbgListPtr
    os_mem.o(i.OS_MemInit) refers to os_var.o(.data) for OSMemDbgListPtr
    os_msg.o(i.OS_MsgPoolInit) refers to os_cfg_app.o(.constdata) for OSCfg_MsgPoolBasePtr
    os_msg.o(i.OS_MsgPoolInit) refers to os_var.o(.bss) for OSMsgPool
    os_msg.o(i.OS_MsgQFreeAll) refers to os_var.o(.bss) for OSMsgPool
    os_msg.o(i.OS_MsgQGet) refers to os_var.o(.bss) for OSMsgPool
    os_msg.o(i.OS_MsgQPut) refers to os_var.o(.bss) for OSMsgPool
    os_mutex.o(i.OSMutexCreate) refers to cpu_a.o(.text) for CPU_SR_Save
    os_mutex.o(i.OSMutexCreate) refers to cpu_core.o(i.CPU_IntDisMeasStart) for CPU_IntDisMeasStart
    os_mutex.o(i.OSMutexCreate) refers to os_core.o(i.OS_PendListInit) for OS_PendListInit
    os_mutex.o(i.OSMutexCreate) refers to os_mutex.o(i.OS_MutexDbgListAdd) for OS_MutexDbgListAdd
    os_mutex.o(i.OSMutexCreate) refers to cpu_core.o(i.CPU_IntDisMeasStop) for CPU_IntDisMeasStop
    os_mutex.o(i.OSMutexCreate) refers to os_var.o(.data) for OSMutexQty
    os_mutex.o(i.OSMutexPend) refers to cpu_a.o(.text) for CPU_SR_Save
    os_mutex.o(i.OSMutexPend) refers to cpu_core.o(i.CPU_IntDisMeasStart) for CPU_IntDisMeasStart
    os_mutex.o(i.OSMutexPend) refers to os_mutex.o(i.OS_MutexGrpAdd) for OS_MutexGrpAdd
    os_mutex.o(i.OSMutexPend) refers to cpu_core.o(i.CPU_IntDisMeasStop) for CPU_IntDisMeasStop
    os_mutex.o(i.OSMutexPend) refers to os_task.o(i.OS_TaskChangePrio) for OS_TaskChangePrio
    os_mutex.o(i.OSMutexPend) refers to os_core.o(i.OS_Pend) for OS_Pend
    os_mutex.o(i.OSMutexPend) refers to os_core.o(i.OSSched) for OSSched
    os_mutex.o(i.OSMutexPend) refers to os_var.o(.data) for OSTCBCurPtr
    os_mutex.o(i.OSMutexPost) refers to cpu_a.o(.text) for CPU_SR_Save
    os_mutex.o(i.OSMutexPost) refers to cpu_core.o(i.CPU_IntDisMeasStart) for CPU_IntDisMeasStart
    os_mutex.o(i.OSMutexPost) refers to cpu_core.o(i.CPU_IntDisMeasStop) for CPU_IntDisMeasStop
    os_mutex.o(i.OSMutexPost) refers to bsp.o(i.CPU_TS_TmrRd) for CPU_TS_TmrRd
    os_mutex.o(i.OSMutexPost) refers to os_mutex.o(i.OS_MutexGrpRemove) for OS_MutexGrpRemove
    os_mutex.o(i.OSMutexPost) refers to os_mutex.o(i.OS_MutexGrpPrioFindHighest) for OS_MutexGrpPrioFindHighest
    os_mutex.o(i.OSMutexPost) refers to os_core.o(i.OS_RdyListRemove) for OS_RdyListRemove
    os_mutex.o(i.OSMutexPost) refers to os_prio.o(i.OS_PrioInsert) for OS_PrioInsert
    os_mutex.o(i.OSMutexPost) refers to os_core.o(i.OS_RdyListInsertTail) for OS_RdyListInsertTail
    os_mutex.o(i.OSMutexPost) refers to os_mutex.o(i.OS_MutexGrpAdd) for OS_MutexGrpAdd
    os_mutex.o(i.OSMutexPost) refers to os_core.o(i.OS_Post) for OS_Post
    os_mutex.o(i.OSMutexPost) refers to os_core.o(i.OSSched) for OSSched
    os_mutex.o(i.OSMutexPost) refers to os_var.o(.data) for OSTCBCurPtr
    os_mutex.o(i.OS_MutexClr) refers to os_core.o(i.OS_PendListInit) for OS_PendListInit
    os_mutex.o(i.OS_MutexDbgListAdd) refers to os_var.o(.data) for OSMutexDbgListPtr
    os_mutex.o(i.OS_MutexDbgListRemove) refers to os_var.o(.data) for OSMutexDbgListPtr
    os_mutex.o(i.OS_MutexGrpPostAll) refers to bsp.o(i.CPU_TS_TmrRd) for CPU_TS_TmrRd
    os_mutex.o(i.OS_MutexGrpPostAll) refers to os_mutex.o(i.OS_MutexGrpRemove) for OS_MutexGrpRemove
    os_mutex.o(i.OS_MutexGrpPostAll) refers to os_mutex.o(i.OS_MutexGrpAdd) for OS_MutexGrpAdd
    os_mutex.o(i.OS_MutexGrpPostAll) refers to os_core.o(i.OS_Post) for OS_Post
    os_mutex.o(i.OS_MutexInit) refers to os_var.o(.data) for OSMutexDbgListPtr
    os_pend_multi.o(i.OSPendMulti) refers to os_pend_multi.o(i.OS_PendMultiValidate) for OS_PendMultiValidate
    os_pend_multi.o(i.OSPendMulti) refers to cpu_a.o(.text) for CPU_SR_Save
    os_pend_multi.o(i.OSPendMulti) refers to cpu_core.o(i.CPU_IntDisMeasStart) for CPU_IntDisMeasStart
    os_pend_multi.o(i.OSPendMulti) refers to os_pend_multi.o(i.OS_PendMultiGetRdy) for OS_PendMultiGetRdy
    os_pend_multi.o(i.OSPendMulti) refers to cpu_core.o(i.CPU_IntDisMeasStop) for CPU_IntDisMeasStop
    os_pend_multi.o(i.OSPendMulti) refers to os_pend_multi.o(i.OS_PendMultiWait) for OS_PendMultiWait
    os_pend_multi.o(i.OSPendMulti) refers to os_core.o(i.OSSched) for OSSched
    os_pend_multi.o(i.OSPendMulti) refers to os_var.o(.data) for OSSchedLockNestingCtr
    os_pend_multi.o(i.OS_PendMultiGetRdy) refers to os_msg.o(i.OS_MsgQGet) for OS_MsgQGet
    os_pend_multi.o(i.OS_PendMultiWait) refers to os_core.o(i.OS_TaskBlock) for OS_TaskBlock
    os_pend_multi.o(i.OS_PendMultiWait) refers to os_core.o(i.OS_PendListInsertPrio) for OS_PendListInsertPrio
    os_pend_multi.o(i.OS_PendMultiWait) refers to os_var.o(.data) for OSTCBCurPtr
    os_prio.o(i.OS_PrioGetHighest) refers to cpu_a.o(.text) for CPU_CntLeadZeros
    os_prio.o(i.OS_PrioGetHighest) refers to os_prio.o(.data) for OSPrioTbl
    os_prio.o(i.OS_PrioInit) refers to os_prio.o(.data) for OSPrioTbl
    os_prio.o(i.OS_PrioInsert) refers to os_prio.o(.data) for OSPrioTbl
    os_prio.o(i.OS_PrioRemove) refers to os_prio.o(.data) for OSPrioTbl
    os_q.o(i.OSQCreate) refers to cpu_a.o(.text) for CPU_SR_Save
    os_q.o(i.OSQCreate) refers to cpu_core.o(i.CPU_IntDisMeasStart) for CPU_IntDisMeasStart
    os_q.o(i.OSQCreate) refers to os_msg.o(i.OS_MsgQInit) for OS_MsgQInit
    os_q.o(i.OSQCreate) refers to os_core.o(i.OS_PendListInit) for OS_PendListInit
    os_q.o(i.OSQCreate) refers to os_q.o(i.OS_QDbgListAdd) for OS_QDbgListAdd
    os_q.o(i.OSQCreate) refers to cpu_core.o(i.CPU_IntDisMeasStop) for CPU_IntDisMeasStop
    os_q.o(i.OSQCreate) refers to os_var.o(.data) for OSQQty
    os_q.o(i.OSQPend) refers to cpu_a.o(.text) for CPU_SR_Save
    os_q.o(i.OSQPend) refers to cpu_core.o(i.CPU_IntDisMeasStart) for CPU_IntDisMeasStart
    os_q.o(i.OSQPend) refers to os_msg.o(i.OS_MsgQGet) for OS_MsgQGet
    os_q.o(i.OSQPend) refers to cpu_core.o(i.CPU_IntDisMeasStop) for CPU_IntDisMeasStop
    os_q.o(i.OSQPend) refers to os_core.o(i.OS_Pend) for OS_Pend
    os_q.o(i.OSQPend) refers to os_core.o(i.OSSched) for OSSched
    os_q.o(i.OSQPend) refers to os_var.o(.data) for OSSchedLockNestingCtr
    os_q.o(i.OSQPendAbort) refers to cpu_a.o(.text) for CPU_SR_Save
    os_q.o(i.OSQPendAbort) refers to cpu_core.o(i.CPU_IntDisMeasStart) for CPU_IntDisMeasStart
    os_q.o(i.OSQPendAbort) refers to cpu_core.o(i.CPU_IntDisMeasStop) for CPU_IntDisMeasStop
    os_q.o(i.OSQPendAbort) refers to bsp.o(i.CPU_TS_TmrRd) for CPU_TS_TmrRd
    os_q.o(i.OSQPendAbort) refers to os_core.o(i.OS_PendAbort) for OS_PendAbort
    os_q.o(i.OSQPendAbort) refers to os_core.o(i.OSSched) for OSSched
    os_q.o(i.OSQPost) refers to bsp.o(i.CPU_TS_TmrRd) for CPU_TS_TmrRd
    os_q.o(i.OSQPost) refers to os_q.o(i.OS_QPost) for OS_QPost
    os_q.o(i.OS_QClr) refers to os_msg.o(i.OS_MsgQFreeAll) for OS_MsgQFreeAll
    os_q.o(i.OS_QClr) refers to os_msg.o(i.OS_MsgQInit) for OS_MsgQInit
    os_q.o(i.OS_QClr) refers to os_core.o(i.OS_PendListInit) for OS_PendListInit
    os_q.o(i.OS_QDbgListAdd) refers to os_var.o(.data) for OSQDbgListPtr
    os_q.o(i.OS_QDbgListRemove) refers to os_var.o(.data) for OSQDbgListPtr
    os_q.o(i.OS_QInit) refers to os_var.o(.data) for OSQDbgListPtr
    os_q.o(i.OS_QPost) refers to cpu_a.o(.text) for CPU_SR_Save
    os_q.o(i.OS_QPost) refers to cpu_core.o(i.CPU_IntDisMeasStart) for CPU_IntDisMeasStart
    os_q.o(i.OS_QPost) refers to os_msg.o(i.OS_MsgQPut) for OS_MsgQPut
    os_q.o(i.OS_QPost) refers to cpu_core.o(i.CPU_IntDisMeasStop) for CPU_IntDisMeasStop
    os_q.o(i.OS_QPost) refers to os_core.o(i.OS_Post) for OS_Post
    os_q.o(i.OS_QPost) refers to os_core.o(i.OSSched) for OSSched
    os_sem.o(i.OSSemCreate) refers to cpu_a.o(.text) for CPU_SR_Save
    os_sem.o(i.OSSemCreate) refers to cpu_core.o(i.CPU_IntDisMeasStart) for CPU_IntDisMeasStart
    os_sem.o(i.OSSemCreate) refers to os_core.o(i.OS_PendListInit) for OS_PendListInit
    os_sem.o(i.OSSemCreate) refers to os_sem.o(i.OS_SemDbgListAdd) for OS_SemDbgListAdd
    os_sem.o(i.OSSemCreate) refers to cpu_core.o(i.CPU_IntDisMeasStop) for CPU_IntDisMeasStop
    os_sem.o(i.OSSemCreate) refers to os_var.o(.data) for OSSemQty
    os_sem.o(i.OSSemDel) refers to cpu_a.o(.text) for CPU_SR_Save
    os_sem.o(i.OSSemDel) refers to cpu_core.o(i.CPU_IntDisMeasStart) for CPU_IntDisMeasStart
    os_sem.o(i.OSSemDel) refers to os_sem.o(i.OS_SemDbgListRemove) for OS_SemDbgListRemove
    os_sem.o(i.OSSemDel) refers to os_sem.o(i.OS_SemClr) for OS_SemClr
    os_sem.o(i.OSSemDel) refers to cpu_core.o(i.CPU_IntDisMeasStop) for CPU_IntDisMeasStop
    os_sem.o(i.OSSemDel) refers to bsp.o(i.CPU_TS_TmrRd) for CPU_TS_TmrRd
    os_sem.o(i.OSSemDel) refers to os_core.o(i.OS_PendObjDel) for OS_PendObjDel
    os_sem.o(i.OSSemDel) refers to os_core.o(i.OSSched) for OSSched
    os_sem.o(i.OSSemDel) refers to os_var.o(.data) for OSSemQty
    os_sem.o(i.OSSemPend) refers to cpu_a.o(.text) for CPU_SR_Save
    os_sem.o(i.OSSemPend) refers to cpu_core.o(i.CPU_IntDisMeasStart) for CPU_IntDisMeasStart
    os_sem.o(i.OSSemPend) refers to cpu_core.o(i.CPU_IntDisMeasStop) for CPU_IntDisMeasStop
    os_sem.o(i.OSSemPend) refers to os_core.o(i.OS_Pend) for OS_Pend
    os_sem.o(i.OSSemPend) refers to os_core.o(i.OSSched) for OSSched
    os_sem.o(i.OSSemPend) refers to os_var.o(.data) for OSSchedLockNestingCtr
    os_sem.o(i.OSSemPendAbort) refers to cpu_a.o(.text) for CPU_SR_Save
    os_sem.o(i.OSSemPendAbort) refers to cpu_core.o(i.CPU_IntDisMeasStart) for CPU_IntDisMeasStart
    os_sem.o(i.OSSemPendAbort) refers to cpu_core.o(i.CPU_IntDisMeasStop) for CPU_IntDisMeasStop
    os_sem.o(i.OSSemPendAbort) refers to bsp.o(i.CPU_TS_TmrRd) for CPU_TS_TmrRd
    os_sem.o(i.OSSemPendAbort) refers to os_core.o(i.OS_PendAbort) for OS_PendAbort
    os_sem.o(i.OSSemPendAbort) refers to os_core.o(i.OSSched) for OSSched
    os_sem.o(i.OSSemPost) refers to bsp.o(i.CPU_TS_TmrRd) for CPU_TS_TmrRd
    os_sem.o(i.OSSemPost) refers to os_sem.o(i.OS_SemPost) for OS_SemPost
    os_sem.o(i.OSSemSet) refers to cpu_a.o(.text) for CPU_SR_Save
    os_sem.o(i.OSSemSet) refers to cpu_core.o(i.CPU_IntDisMeasStart) for CPU_IntDisMeasStart
    os_sem.o(i.OSSemSet) refers to cpu_core.o(i.CPU_IntDisMeasStop) for CPU_IntDisMeasStop
    os_sem.o(i.OS_SemClr) refers to os_core.o(i.OS_PendListInit) for OS_PendListInit
    os_sem.o(i.OS_SemDbgListAdd) refers to os_var.o(.data) for OSSemDbgListPtr
    os_sem.o(i.OS_SemDbgListRemove) refers to os_var.o(.data) for OSSemDbgListPtr
    os_sem.o(i.OS_SemInit) refers to os_var.o(.data) for OSSemDbgListPtr
    os_sem.o(i.OS_SemPost) refers to cpu_a.o(.text) for CPU_SR_Save
    os_sem.o(i.OS_SemPost) refers to cpu_core.o(i.CPU_IntDisMeasStart) for CPU_IntDisMeasStart
    os_sem.o(i.OS_SemPost) refers to cpu_core.o(i.CPU_IntDisMeasStop) for CPU_IntDisMeasStop
    os_sem.o(i.OS_SemPost) refers to os_core.o(i.OS_Post) for OS_Post
    os_sem.o(i.OS_SemPost) refers to os_core.o(i.OSSched) for OSSched
    os_stat.o(i.OSStatReset) refers to cpu_a.o(.text) for CPU_SR_Save
    os_stat.o(i.OSStatReset) refers to cpu_core.o(i.CPU_IntDisMeasStart) for CPU_IntDisMeasStart
    os_stat.o(i.OSStatReset) refers to cpu_core.o(i.CPU_IntDisMeasStop) for CPU_IntDisMeasStop
    os_stat.o(i.OSStatReset) refers to bsp.o(i.CPU_TS_TmrRd) for CPU_TS_TmrRd
    os_stat.o(i.OSStatReset) refers to os_var.o(.data) for OSStatTaskCPUUsageMax
    os_stat.o(i.OSStatReset) refers to os_var.o(.bss) for OSMsgPool
    os_stat.o(i.OSStatTaskCPUUsageInit) refers to os_task.o(i.OSTaskSuspend) for OSTaskSuspend
    os_stat.o(i.OSStatTaskCPUUsageInit) refers to os_time.o(i.OSTimeDly) for OSTimeDly
    os_stat.o(i.OSStatTaskCPUUsageInit) refers to cpu_a.o(.text) for CPU_SR_Save
    os_stat.o(i.OSStatTaskCPUUsageInit) refers to cpu_core.o(i.CPU_IntDisMeasStart) for CPU_IntDisMeasStart
    os_stat.o(i.OSStatTaskCPUUsageInit) refers to cpu_core.o(i.CPU_IntDisMeasStop) for CPU_IntDisMeasStop
    os_stat.o(i.OSStatTaskCPUUsageInit) refers to os_task.o(i.OSTaskResume) for OSTaskResume
    os_stat.o(i.OSStatTaskCPUUsageInit) refers to os_var.o(.bss) for OSTmrTaskTCB
    os_stat.o(i.OSStatTaskCPUUsageInit) refers to os_var.o(.data) for OSStatTaskCtr
    os_stat.o(i.OSStatTaskCPUUsageInit) refers to os_cfg_app.o(.constdata) for OSCfg_TickRate_Hz
    os_stat.o(i.OS_StatTask) refers to os_time.o(i.OSTimeDly) for OSTimeDly
    os_stat.o(i.OS_StatTask) refers to os_stat.o(i.OSStatReset) for OSStatReset
    os_stat.o(i.OS_StatTask) refers to bsp.o(i.CPU_TS_TmrRd) for CPU_TS_TmrRd
    os_stat.o(i.OS_StatTask) refers to cpu_core.o(i.CPU_IntDisMeasMaxGet) for CPU_IntDisMeasMaxGet
    os_stat.o(i.OS_StatTask) refers to cpu_a.o(.text) for CPU_SR_Save
    os_stat.o(i.OS_StatTask) refers to cpu_core.o(i.CPU_IntDisMeasStart) for CPU_IntDisMeasStart
    os_stat.o(i.OS_StatTask) refers to cpu_core.o(i.CPU_IntDisMeasStop) for CPU_IntDisMeasStop
    os_stat.o(i.OS_StatTask) refers to os_cpu_c.o(i.OSStatTaskHook) for OSStatTaskHook
    os_stat.o(i.OS_StatTask) refers to os_task.o(i.OSTaskStkChk) for OSTaskStkChk
    os_stat.o(i.OS_StatTask) refers to os_cfg_app.o(.constdata) for OSCfg_StatTaskRate_Hz
    os_stat.o(i.OS_StatTask) refers to os_var.o(.data) for OSStatTaskRdy
    os_stat.o(i.OS_StatTaskInit) refers to os_task.o(i.OSTaskCreate) for OSTaskCreate
    os_stat.o(i.OS_StatTaskInit) refers to os_var.o(.data) for OSStatTaskCtr
    os_stat.o(i.OS_StatTaskInit) refers to os_cfg_app.o(.constdata) for OSCfg_StatTaskStkBasePtr
    os_stat.o(i.OS_StatTaskInit) refers to os_stat.o(i.OS_StatTask) for OS_StatTask
    os_stat.o(i.OS_StatTaskInit) refers to os_var.o(.bss) for OSStatTaskTCB
    os_task.o(i.OSTaskChangePrio) refers to cpu_a.o(.text) for CPU_SR_Save
    os_task.o(i.OSTaskChangePrio) refers to cpu_core.o(i.CPU_IntDisMeasStart) for CPU_IntDisMeasStart
    os_task.o(i.OSTaskChangePrio) refers to cpu_core.o(i.CPU_IntDisMeasStop) for CPU_IntDisMeasStop
    os_task.o(i.OSTaskChangePrio) refers to os_mutex.o(i.OS_MutexGrpPrioFindHighest) for OS_MutexGrpPrioFindHighest
    os_task.o(i.OSTaskChangePrio) refers to os_task.o(i.OS_TaskChangePrio) for OS_TaskChangePrio
    os_task.o(i.OSTaskChangePrio) refers to os_core.o(i.OSSched) for OSSched
    os_task.o(i.OSTaskChangePrio) refers to os_var.o(.data) for OSTCBCurPtr
    os_task.o(i.OSTaskCreate) refers to os_task.o(i.OS_TaskInitTCB) for OS_TaskInitTCB
    os_task.o(i.OSTaskCreate) refers to os_cpu_c.o(i.OSTaskStkInit) for OSTaskStkInit
    os_task.o(i.OSTaskCreate) refers to os_msg.o(i.OS_MsgQInit) for OS_MsgQInit
    os_task.o(i.OSTaskCreate) refers to os_cpu_c.o(i.OSTaskCreateHook) for OSTaskCreateHook
    os_task.o(i.OSTaskCreate) refers to cpu_a.o(.text) for CPU_SR_Save
    os_task.o(i.OSTaskCreate) refers to cpu_core.o(i.CPU_IntDisMeasStart) for CPU_IntDisMeasStart
    os_task.o(i.OSTaskCreate) refers to os_prio.o(i.OS_PrioInsert) for OS_PrioInsert
    os_task.o(i.OSTaskCreate) refers to os_core.o(i.OS_RdyListInsertTail) for OS_RdyListInsertTail
    os_task.o(i.OSTaskCreate) refers to os_task.o(i.OS_TaskDbgListAdd) for OS_TaskDbgListAdd
    os_task.o(i.OSTaskCreate) refers to cpu_core.o(i.CPU_IntDisMeasStop) for CPU_IntDisMeasStop
    os_task.o(i.OSTaskCreate) refers to os_core.o(i.OSSched) for OSSched
    os_task.o(i.OSTaskCreate) refers to os_var.o(.bss) for OSIdleTaskTCB
    os_task.o(i.OSTaskCreate) refers to os_var.o(.data) for OSTaskQty
    os_task.o(i.OSTaskQFlush) refers to cpu_a.o(.text) for CPU_SR_Save
    os_task.o(i.OSTaskQFlush) refers to cpu_core.o(i.CPU_IntDisMeasStart) for CPU_IntDisMeasStart
    os_task.o(i.OSTaskQFlush) refers to cpu_core.o(i.CPU_IntDisMeasStop) for CPU_IntDisMeasStop
    os_task.o(i.OSTaskQFlush) refers to os_msg.o(i.OS_MsgQFreeAll) for OS_MsgQFreeAll
    os_task.o(i.OSTaskQFlush) refers to os_var.o(.data) for OSTCBCurPtr
    os_task.o(i.OSTaskQPend) refers to cpu_a.o(.text) for CPU_SR_Save
    os_task.o(i.OSTaskQPend) refers to cpu_core.o(i.CPU_IntDisMeasStart) for CPU_IntDisMeasStart
    os_task.o(i.OSTaskQPend) refers to os_msg.o(i.OS_MsgQGet) for OS_MsgQGet
    os_task.o(i.OSTaskQPend) refers to bsp.o(i.CPU_TS_TmrRd) for CPU_TS_TmrRd
    os_task.o(i.OSTaskQPend) refers to cpu_core.o(i.CPU_IntDisMeasStop) for CPU_IntDisMeasStop
    os_task.o(i.OSTaskQPend) refers to os_core.o(i.OS_Pend) for OS_Pend
    os_task.o(i.OSTaskQPend) refers to os_core.o(i.OSSched) for OSSched
    os_task.o(i.OSTaskQPend) refers to os_var.o(.data) for OSTCBCurPtr
    os_task.o(i.OSTaskQPost) refers to bsp.o(i.CPU_TS_TmrRd) for CPU_TS_TmrRd
    os_task.o(i.OSTaskQPost) refers to os_task.o(i.OS_TaskQPost) for OS_TaskQPost
    os_task.o(i.OSTaskRegGet) refers to cpu_a.o(.text) for CPU_SR_Save
    os_task.o(i.OSTaskRegGet) refers to cpu_core.o(i.CPU_IntDisMeasStart) for CPU_IntDisMeasStart
    os_task.o(i.OSTaskRegGet) refers to cpu_core.o(i.CPU_IntDisMeasStop) for CPU_IntDisMeasStop
    os_task.o(i.OSTaskRegGet) refers to os_var.o(.data) for OSTCBCurPtr
    os_task.o(i.OSTaskRegGetID) refers to cpu_a.o(.text) for CPU_SR_Save
    os_task.o(i.OSTaskRegGetID) refers to cpu_core.o(i.CPU_IntDisMeasStart) for CPU_IntDisMeasStart
    os_task.o(i.OSTaskRegGetID) refers to cpu_core.o(i.CPU_IntDisMeasStop) for CPU_IntDisMeasStop
    os_task.o(i.OSTaskRegGetID) refers to os_var.o(.data) for OSTaskRegNextAvailID
    os_task.o(i.OSTaskRegSet) refers to cpu_a.o(.text) for CPU_SR_Save
    os_task.o(i.OSTaskRegSet) refers to cpu_core.o(i.CPU_IntDisMeasStart) for CPU_IntDisMeasStart
    os_task.o(i.OSTaskRegSet) refers to cpu_core.o(i.CPU_IntDisMeasStop) for CPU_IntDisMeasStop
    os_task.o(i.OSTaskRegSet) refers to os_var.o(.data) for OSTCBCurPtr
    os_task.o(i.OSTaskResume) refers to cpu_a.o(.text) for CPU_SR_Save
    os_task.o(i.OSTaskResume) refers to cpu_core.o(i.CPU_IntDisMeasStart) for CPU_IntDisMeasStart
    os_task.o(i.OSTaskResume) refers to cpu_core.o(i.CPU_IntDisMeasStop) for CPU_IntDisMeasStop
    os_task.o(i.OSTaskResume) refers to os_task.o(i.OS_TaskResume) for OS_TaskResume
    os_task.o(i.OSTaskSemPend) refers to cpu_a.o(.text) for CPU_SR_Save
    os_task.o(i.OSTaskSemPend) refers to cpu_core.o(i.CPU_IntDisMeasStart) for CPU_IntDisMeasStart
    os_task.o(i.OSTaskSemPend) refers to bsp.o(i.CPU_TS_TmrRd) for CPU_TS_TmrRd
    os_task.o(i.OSTaskSemPend) refers to cpu_core.o(i.CPU_IntDisMeasStop) for CPU_IntDisMeasStop
    os_task.o(i.OSTaskSemPend) refers to os_core.o(i.OS_Pend) for OS_Pend
    os_task.o(i.OSTaskSemPend) refers to os_core.o(i.OSSched) for OSSched
    os_task.o(i.OSTaskSemPend) refers to os_var.o(.data) for OSTCBCurPtr
    os_task.o(i.OSTaskSemPendAbort) refers to cpu_a.o(.text) for CPU_SR_Save
    os_task.o(i.OSTaskSemPendAbort) refers to cpu_core.o(i.CPU_IntDisMeasStart) for CPU_IntDisMeasStart
    os_task.o(i.OSTaskSemPendAbort) refers to cpu_core.o(i.CPU_IntDisMeasStop) for CPU_IntDisMeasStop
    os_task.o(i.OSTaskSemPendAbort) refers to bsp.o(i.CPU_TS_TmrRd) for CPU_TS_TmrRd
    os_task.o(i.OSTaskSemPendAbort) refers to os_core.o(i.OS_PendAbort) for OS_PendAbort
    os_task.o(i.OSTaskSemPendAbort) refers to os_core.o(i.OSSched) for OSSched
    os_task.o(i.OSTaskSemPendAbort) refers to os_var.o(.data) for OSTCBCurPtr
    os_task.o(i.OSTaskSemPost) refers to bsp.o(i.CPU_TS_TmrRd) for CPU_TS_TmrRd
    os_task.o(i.OSTaskSemPost) refers to os_task.o(i.OS_TaskSemPost) for OS_TaskSemPost
    os_task.o(i.OSTaskSemSet) refers to cpu_a.o(.text) for CPU_SR_Save
    os_task.o(i.OSTaskSemSet) refers to cpu_core.o(i.CPU_IntDisMeasStart) for CPU_IntDisMeasStart
    os_task.o(i.OSTaskSemSet) refers to cpu_core.o(i.CPU_IntDisMeasStop) for CPU_IntDisMeasStop
    os_task.o(i.OSTaskSemSet) refers to os_var.o(.data) for OSTCBCurPtr
    os_task.o(i.OSTaskStkChk) refers to cpu_a.o(.text) for CPU_SR_Save
    os_task.o(i.OSTaskStkChk) refers to cpu_core.o(i.CPU_IntDisMeasStart) for CPU_IntDisMeasStart
    os_task.o(i.OSTaskStkChk) refers to cpu_core.o(i.CPU_IntDisMeasStop) for CPU_IntDisMeasStop
    os_task.o(i.OSTaskStkChk) refers to os_var.o(.data) for OSTCBCurPtr
    os_task.o(i.OSTaskSuspend) refers to os_task.o(i.OS_TaskSuspend) for OS_TaskSuspend
    os_task.o(i.OSTaskSuspend) refers to os_var.o(.bss) for OSIdleTaskTCB
    os_task.o(i.OS_TaskChangePrio) refers to os_core.o(i.OS_RdyListRemove) for OS_RdyListRemove
    os_task.o(i.OS_TaskChangePrio) refers to os_prio.o(i.OS_PrioInsert) for OS_PrioInsert
    os_task.o(i.OS_TaskChangePrio) refers to os_core.o(i.OS_RdyListInsertHead) for OS_RdyListInsertHead
    os_task.o(i.OS_TaskChangePrio) refers to os_core.o(i.OS_RdyListInsertTail) for OS_RdyListInsertTail
    os_task.o(i.OS_TaskChangePrio) refers to os_core.o(i.OS_PendListChangePrio) for OS_PendListChangePrio
    os_task.o(i.OS_TaskChangePrio) refers to os_mutex.o(i.OS_MutexGrpPrioFindHighest) for OS_MutexGrpPrioFindHighest
    os_task.o(i.OS_TaskChangePrio) refers to os_var.o(.data) for OSTCBCurPtr
    os_task.o(i.OS_TaskDbgListAdd) refers to os_var.o(.data) for OSTaskDbgListPtr
    os_task.o(i.OS_TaskDbgListRemove) refers to os_var.o(.data) for OSTaskDbgListPtr
    os_task.o(i.OS_TaskInit) refers to os_var.o(.data) for OSTaskDbgListPtr
    os_task.o(i.OS_TaskInitTCB) refers to os_msg.o(i.OS_MsgQInit) for OS_MsgQInit
    os_task.o(i.OS_TaskInitTCB) refers to bsp.o(i.CPU_TS_TmrRd) for CPU_TS_TmrRd
    os_task.o(i.OS_TaskQPost) refers to cpu_a.o(.text) for CPU_SR_Save
    os_task.o(i.OS_TaskQPost) refers to cpu_core.o(i.CPU_IntDisMeasStart) for CPU_IntDisMeasStart
    os_task.o(i.OS_TaskQPost) refers to os_msg.o(i.OS_MsgQPut) for OS_MsgQPut
    os_task.o(i.OS_TaskQPost) refers to cpu_core.o(i.CPU_IntDisMeasStop) for CPU_IntDisMeasStop
    os_task.o(i.OS_TaskQPost) refers to os_core.o(i.OS_Post) for OS_Post
    os_task.o(i.OS_TaskQPost) refers to os_core.o(i.OSSched) for OSSched
    os_task.o(i.OS_TaskQPost) refers to os_var.o(.data) for OSTCBCurPtr
    os_task.o(i.OS_TaskResume) refers to cpu_a.o(.text) for CPU_SR_Save
    os_task.o(i.OS_TaskResume) refers to cpu_core.o(i.CPU_IntDisMeasStart) for CPU_IntDisMeasStart
    os_task.o(i.OS_TaskResume) refers to cpu_core.o(i.CPU_IntDisMeasStop) for CPU_IntDisMeasStop
    os_task.o(i.OS_TaskResume) refers to os_core.o(i.OS_RdyListInsert) for OS_RdyListInsert
    os_task.o(i.OS_TaskResume) refers to os_core.o(i.OSSched) for OSSched
    os_task.o(i.OS_TaskReturn) refers to os_cpu_c.o(i.OSTaskReturnHook) for OSTaskReturnHook
    os_task.o(i.OS_TaskReturn) refers to os_time.o(i.OSTimeDly) for OSTimeDly
    os_task.o(i.OS_TaskReturn) refers to os_var.o(.data) for OSTCBCurPtr
    os_task.o(i.OS_TaskReturn) refers to os_cfg_app.o(.constdata) for OSCfg_TickRate_Hz
    os_task.o(i.OS_TaskSemPost) refers to cpu_a.o(.text) for CPU_SR_Save
    os_task.o(i.OS_TaskSemPost) refers to cpu_core.o(i.CPU_IntDisMeasStart) for CPU_IntDisMeasStart
    os_task.o(i.OS_TaskSemPost) refers to cpu_core.o(i.CPU_IntDisMeasStop) for CPU_IntDisMeasStop
    os_task.o(i.OS_TaskSemPost) refers to os_core.o(i.OS_Post) for OS_Post
    os_task.o(i.OS_TaskSemPost) refers to os_core.o(i.OSSched) for OSSched
    os_task.o(i.OS_TaskSemPost) refers to os_var.o(.data) for OSTCBCurPtr
    os_task.o(i.OS_TaskSuspend) refers to cpu_a.o(.text) for CPU_SR_Save
    os_task.o(i.OS_TaskSuspend) refers to cpu_core.o(i.CPU_IntDisMeasStart) for CPU_IntDisMeasStart
    os_task.o(i.OS_TaskSuspend) refers to cpu_core.o(i.CPU_IntDisMeasStop) for CPU_IntDisMeasStop
    os_task.o(i.OS_TaskSuspend) refers to os_core.o(i.OS_RdyListRemove) for OS_RdyListRemove
    os_task.o(i.OS_TaskSuspend) refers to os_core.o(i.OSSched) for OSSched
    os_task.o(i.OS_TaskSuspend) refers to os_var.o(.data) for OSTCBCurPtr
    os_tick.o(i.OS_TickListInsertDly) refers to os_tick.o(i.OS_TickListInsert) for OS_TickListInsert
    os_tick.o(i.OS_TickListInsertDly) refers to os_var.o(.data) for OSTickCtr
    os_tick.o(i.OS_TickListUpdateDly) refers to cpu_a.o(.text) for CPU_SR_Save
    os_tick.o(i.OS_TickListUpdateDly) refers to cpu_core.o(i.CPU_IntDisMeasStart) for CPU_IntDisMeasStart
    os_tick.o(i.OS_TickListUpdateDly) refers to bsp.o(i.CPU_TS_TmrRd) for CPU_TS_TmrRd
    os_tick.o(i.OS_TickListUpdateDly) refers to os_core.o(i.OS_RdyListInsert) for OS_RdyListInsert
    os_tick.o(i.OS_TickListUpdateDly) refers to cpu_core.o(i.CPU_IntDisMeasStop) for CPU_IntDisMeasStop
    os_tick.o(i.OS_TickListUpdateDly) refers to os_var.o(.data) for OSTickListDly
    os_tick.o(i.OS_TickListUpdateTimeout) refers to cpu_a.o(.text) for CPU_SR_Save
    os_tick.o(i.OS_TickListUpdateTimeout) refers to cpu_core.o(i.CPU_IntDisMeasStart) for CPU_IntDisMeasStart
    os_tick.o(i.OS_TickListUpdateTimeout) refers to bsp.o(i.CPU_TS_TmrRd) for CPU_TS_TmrRd
    os_tick.o(i.OS_TickListUpdateTimeout) refers to os_core.o(i.OS_PendListRemove) for OS_PendListRemove
    os_tick.o(i.OS_TickListUpdateTimeout) refers to os_core.o(i.OS_RdyListInsert) for OS_RdyListInsert
    os_tick.o(i.OS_TickListUpdateTimeout) refers to os_mutex.o(i.OS_MutexGrpPrioFindHighest) for OS_MutexGrpPrioFindHighest
    os_tick.o(i.OS_TickListUpdateTimeout) refers to os_task.o(i.OS_TaskChangePrio) for OS_TaskChangePrio
    os_tick.o(i.OS_TickListUpdateTimeout) refers to cpu_core.o(i.CPU_IntDisMeasStop) for CPU_IntDisMeasStop
    os_tick.o(i.OS_TickListUpdateTimeout) refers to os_var.o(.data) for OSTickListTimeout
    os_tick.o(i.OS_TickTask) refers to os_task.o(i.OSTaskSemPend) for OSTaskSemPend
    os_tick.o(i.OS_TickTask) refers to cpu_a.o(.text) for CPU_SR_Save
    os_tick.o(i.OS_TickTask) refers to cpu_core.o(i.CPU_IntDisMeasStart) for CPU_IntDisMeasStart
    os_tick.o(i.OS_TickTask) refers to cpu_core.o(i.CPU_IntDisMeasStop) for CPU_IntDisMeasStop
    os_tick.o(i.OS_TickTask) refers to os_tick.o(i.OS_TickListUpdateDly) for OS_TickListUpdateDly
    os_tick.o(i.OS_TickTask) refers to os_tick.o(i.OS_TickListUpdateTimeout) for OS_TickListUpdateTimeout
    os_tick.o(i.OS_TickTask) refers to os_var.o(.data) for OSTickCtr
    os_tick.o(i.OS_TickTaskInit) refers to os_task.o(i.OSTaskCreate) for OSTaskCreate
    os_tick.o(i.OS_TickTaskInit) refers to os_var.o(.data) for OSTickCtr
    os_tick.o(i.OS_TickTaskInit) refers to os_cfg_app.o(.constdata) for OSCfg_TickTaskStkBasePtr
    os_tick.o(i.OS_TickTaskInit) refers to os_tick.o(i.OS_TickTask) for OS_TickTask
    os_tick.o(i.OS_TickTaskInit) refers to os_var.o(.bss) for OSTickTaskTCB
    os_time.o(i.OSTimeDly) refers to cpu_a.o(.text) for CPU_SR_Save
    os_time.o(i.OSTimeDly) refers to cpu_core.o(i.CPU_IntDisMeasStart) for CPU_IntDisMeasStart
    os_time.o(i.OSTimeDly) refers to os_tick.o(i.OS_TickListInsertDly) for OS_TickListInsertDly
    os_time.o(i.OSTimeDly) refers to cpu_core.o(i.CPU_IntDisMeasStop) for CPU_IntDisMeasStop
    os_time.o(i.OSTimeDly) refers to os_core.o(i.OS_RdyListRemove) for OS_RdyListRemove
    os_time.o(i.OSTimeDly) refers to os_core.o(i.OSSched) for OSSched
    os_time.o(i.OSTimeDly) refers to os_var.o(.data) for OSSchedLockNestingCtr
    os_time.o(i.OSTimeDlyHMSM) refers to cpu_a.o(.text) for CPU_SR_Save
    os_time.o(i.OSTimeDlyHMSM) refers to cpu_core.o(i.CPU_IntDisMeasStart) for CPU_IntDisMeasStart
    os_time.o(i.OSTimeDlyHMSM) refers to os_tick.o(i.OS_TickListInsertDly) for OS_TickListInsertDly
    os_time.o(i.OSTimeDlyHMSM) refers to cpu_core.o(i.CPU_IntDisMeasStop) for CPU_IntDisMeasStop
    os_time.o(i.OSTimeDlyHMSM) refers to os_core.o(i.OS_RdyListRemove) for OS_RdyListRemove
    os_time.o(i.OSTimeDlyHMSM) refers to os_core.o(i.OSSched) for OSSched
    os_time.o(i.OSTimeDlyHMSM) refers to os_var.o(.data) for OSSchedLockNestingCtr
    os_time.o(i.OSTimeDlyHMSM) refers to os_cfg_app.o(.constdata) for OSCfg_TickRate_Hz
    os_time.o(i.OSTimeGet) refers to cpu_a.o(.text) for CPU_SR_Save
    os_time.o(i.OSTimeGet) refers to cpu_core.o(i.CPU_IntDisMeasStart) for CPU_IntDisMeasStart
    os_time.o(i.OSTimeGet) refers to cpu_core.o(i.CPU_IntDisMeasStop) for CPU_IntDisMeasStop
    os_time.o(i.OSTimeGet) refers to os_var.o(.data) for OSTickCtr
    os_time.o(i.OSTimeSet) refers to cpu_a.o(.text) for CPU_SR_Save
    os_time.o(i.OSTimeSet) refers to cpu_core.o(i.CPU_IntDisMeasStart) for CPU_IntDisMeasStart
    os_time.o(i.OSTimeSet) refers to cpu_core.o(i.CPU_IntDisMeasStop) for CPU_IntDisMeasStop
    os_time.o(i.OSTimeSet) refers to os_var.o(.data) for OSTickCtr
    os_time.o(i.OSTimeTick) refers to os_cpu_c.o(i.OSTimeTickHook) for OSTimeTickHook
    os_time.o(i.OSTimeTick) refers to os_task.o(i.OSTaskSemPost) for OSTaskSemPost
    os_time.o(i.OSTimeTick) refers to os_var.o(.bss) for OSTickTaskTCB
    os_time.o(i.OSTimeTick) refers to os_var.o(.data) for OSTmrUpdateCtr
    os_tmr.o(i.OSTmrCreate) refers to os_tmr.o(i.OS_TmrLock) for OS_TmrLock
    os_tmr.o(i.OSTmrCreate) refers to os_tmr.o(i.OS_TmrDbgListAdd) for OS_TmrDbgListAdd
    os_tmr.o(i.OSTmrCreate) refers to os_tmr.o(i.OS_TmrUnlock) for OS_TmrUnlock
    os_tmr.o(i.OSTmrCreate) refers to os_var.o(.data) for OSRunning
    os_tmr.o(i.OSTmrRemainGet) refers to os_tmr.o(i.OS_TmrLock) for OS_TmrLock
    os_tmr.o(i.OSTmrRemainGet) refers to os_tmr.o(i.OS_TmrUnlock) for OS_TmrUnlock
    os_tmr.o(i.OSTmrSet) refers to os_tmr.o(i.OS_TmrLock) for OS_TmrLock
    os_tmr.o(i.OSTmrSet) refers to os_tmr.o(i.OS_TmrUnlock) for OS_TmrUnlock
    os_tmr.o(i.OSTmrStart) refers to os_tmr.o(i.OS_TmrLock) for OS_TmrLock
    os_tmr.o(i.OSTmrStart) refers to os_tmr.o(i.OS_TmrUnlock) for OS_TmrUnlock
    os_tmr.o(i.OSTmrStart) refers to os_var.o(.data) for OSTmrListPtr
    os_tmr.o(i.OSTmrStateGet) refers to os_tmr.o(i.OS_TmrLock) for OS_TmrLock
    os_tmr.o(i.OSTmrStateGet) refers to os_tmr.o(i.OS_TmrUnlock) for OS_TmrUnlock
    os_tmr.o(i.OSTmrStop) refers to os_tmr.o(i.OS_TmrLock) for OS_TmrLock
    os_tmr.o(i.OSTmrStop) refers to os_tmr.o(i.OS_TmrUnlink) for OS_TmrUnlink
    os_tmr.o(i.OSTmrStop) refers to os_tmr.o(i.OS_TmrUnlock) for OS_TmrUnlock
    os_tmr.o(i.OS_TmrDbgListAdd) refers to os_var.o(.data) for OSTmrDbgListPtr
    os_tmr.o(i.OS_TmrDbgListRemove) refers to os_var.o(.data) for OSTmrDbgListPtr
    os_tmr.o(i.OS_TmrInit) refers to os_mutex.o(i.OSMutexCreate) for OSMutexCreate
    os_tmr.o(i.OS_TmrInit) refers to os_task.o(i.OSTaskCreate) for OSTaskCreate
    os_tmr.o(i.OS_TmrInit) refers to os_var.o(.data) for OSTmrDbgListPtr
    os_tmr.o(i.OS_TmrInit) refers to os_cfg_app.o(.constdata) for OSCfg_TmrTaskRate_Hz
    os_tmr.o(i.OS_TmrInit) refers to os_var.o(.bss) for OSTmrMutex
    os_tmr.o(i.OS_TmrInit) refers to os_tmr.o(i.OS_TmrTask) for OS_TmrTask
    os_tmr.o(i.OS_TmrLock) refers to os_mutex.o(i.OSMutexPend) for OSMutexPend
    os_tmr.o(i.OS_TmrLock) refers to os_var.o(.bss) for OSTmrMutex
    os_tmr.o(i.OS_TmrTask) refers to os_task.o(i.OSTaskSemPend) for OSTaskSemPend
    os_tmr.o(i.OS_TmrTask) refers to os_tmr.o(i.OS_TmrLock) for OS_TmrLock
    os_tmr.o(i.OS_TmrTask) refers to bsp.o(i.CPU_TS_TmrRd) for CPU_TS_TmrRd
    os_tmr.o(i.OS_TmrTask) refers to os_core.o(i.OSSchedLock) for OSSchedLock
    os_tmr.o(i.OS_TmrTask) refers to os_tmr.o(i.OS_TmrUnlink) for OS_TmrUnlink
    os_tmr.o(i.OS_TmrTask) refers to os_core.o(i.OSSchedUnlock) for OSSchedUnlock
    os_tmr.o(i.OS_TmrTask) refers to os_tmr.o(i.OS_TmrUnlock) for OS_TmrUnlock
    os_tmr.o(i.OS_TmrTask) refers to os_var.o(.data) for OSTmrTickCtr
    os_tmr.o(i.OS_TmrUnlink) refers to os_var.o(.data) for OSTmrListPtr
    os_tmr.o(i.OS_TmrUnlock) refers to os_mutex.o(i.OSMutexPost) for OSMutexPost
    os_tmr.o(i.OS_TmrUnlock) refers to os_var.o(.bss) for OSTmrMutex
    os_cpu_a.o(CODE) refers to os_var.o(.data) for OSTCBCurPtr
    os_cpu_a.o(CODE) refers to os_cpu_c.o(.data) for OS_CPU_ExceptStkBase
    os_cpu_a.o(CODE) refers to os_cpu_c.o(i.OSTaskSwHook) for OSTaskSwHook
    app.o(i.appTaskStart) refers to bsp.o(i.BSP_init) for BSP_init
    app.o(i.appTaskStart) refers to cpu_core.o(i.CPU_Init) for CPU_Init
    app.o(i.appTaskStart) refers to bsp.o(i.CPU_TS_TmrInit) for CPU_TS_TmrInit
    app.o(i.appTaskStart) refers to cpu_core.o(i.CPU_TS_TmrFreqSet) for CPU_TS_TmrFreqSet
    app.o(i.appTaskStart) refers to bsp.o(i.BSP_CPU_ClkFreq) for BSP_CPU_ClkFreq
    app.o(i.appTaskStart) refers to os_cpu_c.o(i.OS_CPU_SysTickInit) for OS_CPU_SysTickInit
    app.o(i.appTaskStart) refers to cpu_a.o(.text) for CPU_SR_Save
    app.o(i.appTaskStart) refers to cpu_core.o(i.CPU_IntDisMeasStart) for CPU_IntDisMeasStart
    app.o(i.appTaskStart) refers to cpu_core.o(i.CPU_IntDisMeasStop) for CPU_IntDisMeasStop
    app.o(i.appTaskStart) refers to os_sem.o(i.OSSemCreate) for OSSemCreate
    app.o(i.appTaskStart) refers to os_mem.o(i.OSMemCreate) for OSMemCreate
    app.o(i.appTaskStart) refers to os_stat.o(i.OSStatTaskCPUUsageInit) for OSStatTaskCPUUsageInit
    app.o(i.appTaskStart) refers to os_task.o(i.OSTaskCreate) for OSTaskCreate
    app.o(i.appTaskStart) refers to function.o(i.fun_createTaskSimple) for fun_createTaskSimple
    app.o(i.appTaskStart) refers to os_task.o(i.OSTaskChangePrio) for OSTaskChangePrio
    app.o(i.appTaskStart) refers to os_time.o(i.OSTimeDlyHMSM) for OSTimeDlyHMSM
    app.o(i.appTaskStart) refers to os_task.o(i.OSTaskStkChk) for OSTaskStkChk
    app.o(i.appTaskStart) refers to os_cfg_app.o(.constdata) for OSCfg_TickRate_Hz
    app.o(i.appTaskStart) refers to app.o(.bss) for appData
    app.o(i.appTaskStart) refers to app.o(i.appTest) for appTest
    app.o(i.appTaskStart) refers to apppresent.o(i.appBlackBox) for appBlackBox
    app.o(i.appTaskStart) refers to apppresent.o(i.appBuzzer) for appBuzzer
    app.o(i.appTaskStart) refers to appcommunicate.o(i.appSendBluetooth) for appSendBluetooth
    app.o(i.appTaskStart) refers to app.o(i.appWatchDog) for appWatchDog
    app.o(i.appTaskStart) refers to appcontroller.o(i.appMainCycle) for appMainCycle
    app.o(i.appTaskStart) refers to appcontroller.o(i.appPositionCtl) for appPositionCtl
    app.o(i.appTaskStart) refers to appcommunicate.o(i.appCmdHander) for appCmdHander
    app.o(i.appTaskStart) refers to main.o(.bss) for appTaskStartTCB
    app.o(i.appTest) refers to os_task.o(i.OSTaskSuspend) for OSTaskSuspend
    app.o(i.appTest) refers to app.o(.bss) for appData
    app.o(i.appWatchDog) refers to os_task.o(i.OSTaskQPost) for OSTaskQPost
    app.o(i.appWatchDog) refers to appcontroller.o(i.setMotor) for setMotor
    app.o(i.appWatchDog) refers to os_time.o(i.OSTimeDly) for OSTimeDly
    app.o(i.appWatchDog) refers to app.o(.bss) for uavData
    apppresent.o(i.appBlackBox) refers to function.o(i.fun_delayMs) for fun_delayMs
    apppresent.o(i.appBlackBox) refers to sdio_tf.o(i.Bsp_sdioInit) for Bsp_sdioInit
    apppresent.o(i.appBlackBox) refers to os_task.o(i.OSTaskSuspend) for OSTaskSuspend
    apppresent.o(i.appBlackBox) refers to ff.o(i.f_mount) for f_mount
    apppresent.o(i.appBlackBox) refers to ff.o(i.f_stat) for f_stat
    apppresent.o(i.appBlackBox) refers to ff.o(i.f_open) for f_open
    apppresent.o(i.appBlackBox) refers to printfa.o(i.__0sprintf) for __2sprintf
    apppresent.o(i.appBlackBox) refers to ff.o(i.f_write) for f_write
    apppresent.o(i.appBlackBox) refers to ff.o(i.f_close) for f_close
    apppresent.o(i.appBlackBox) refers to ff.o(i.f_read) for f_read
    apppresent.o(i.appBlackBox) refers to ff.o(i.f_lseek) for f_lseek
    apppresent.o(i.appBlackBox) refers to apppresent.o(i.getFileNameFromNumber) for getFileNameFromNumber
    apppresent.o(i.appBlackBox) refers to os_time.o(i.OSTimeDlyHMSM) for OSTimeDlyHMSM
    apppresent.o(i.appBlackBox) refers to f2d.o(.text) for __aeabi_f2d
    apppresent.o(i.appBlackBox) refers to app.o(.bss) for uavData
    apppresent.o(i.appBlackBox) refers to apppresent.o(.data) for res
    apppresent.o(i.appBlackBox) refers to apppresent.o(.bss) for tfCardBuffer
    apppresent.o(i.appBuzzer) refers to os_task.o(i.OSTaskQPend) for OSTaskQPend
    apppresent.o(i.appBuzzer) refers to stm32f4xx_tim.o(i.TIM_SetCompare1) for TIM_SetCompare1
    apppresent.o(i.appBuzzer) refers to os_time.o(i.OSTimeDlyHMSM) for OSTimeDlyHMSM
    appcontroller.o(i.appMainCycle) refers to appcontroller.o(i.setMotor) for setMotor
    appcontroller.o(i.appMainCycle) refers to os_time.o(i.OSTimeDly) for OSTimeDly
    appcontroller.o(i.appMainCycle) refers to os_task.o(i.OSTaskSemPend) for OSTaskSemPend
    appcontroller.o(i.appMainCycle) refers to appcontroller.o(i.constrain_float) for constrain_float
    appcontroller.o(i.appMainCycle) refers to app.o(.bss) for uavData
    appcontroller.o(i.appPositionCtl) refers to os_task.o(i.OSTaskSemPend) for OSTaskSemPend
    appcontroller.o(i.setMotor) refers to stm32f4xx_tim.o(i.TIM_SetCompare1) for TIM_SetCompare1
    appcontroller.o(i.setMotor) refers to stm32f4xx_tim.o(i.TIM_SetCompare2) for TIM_SetCompare2
    appcontroller.o(i.setMotor) refers to stm32f4xx_tim.o(i.TIM_SetCompare3) for TIM_SetCompare3
    appcontroller.o(i.setMotor) refers to stm32f4xx_tim.o(i.TIM_SetCompare4) for TIM_SetCompare4
    appcommunicate.o(i.appCmdHander) refers to at25320.o(i.at25320_readBuffer) for at25320_readBuffer
    appcommunicate.o(i.appCmdHander) refers to os_time.o(i.OSTimeDly) for OSTimeDly
    appcommunicate.o(i.appCmdHander) refers to os_task.o(i.OSTaskQPend) for OSTaskQPend
    appcommunicate.o(i.appCmdHander) refers to os_task.o(i.OSTaskQPost) for OSTaskQPost
    appcommunicate.o(i.appCmdHander) refers to at25320.o(i.at25320_WREN) for at25320_WREN
    appcommunicate.o(i.appCmdHander) refers to at25320.o(i.at25320_writeBuffer) for at25320_writeBuffer
    appcommunicate.o(i.appCmdHander) refers to at25320.o(i.at25320_WRDI) for at25320_WRDI
    appcommunicate.o(i.appCmdHander) refers to app.o(.bss) for uavData
    appcommunicate.o(i.appCmdHander) refers to appcommunicate.o(.bss) for saveBuffer1
    appcommunicate.o(i.appCmdHander) refers to appcommunicate.o(.data) for uavPara
    appcommunicate.o(i.appCmdHander) refers to os_mem.o(i.OSMemPut) for OSMemPut
    appcommunicate.o(i.appSendBluetooth) refers to appcommunicate.o(i.usartSendStr) for usartSendStr
    appcommunicate.o(i.appSendBluetooth) refers to os_time.o(i.OSTimeDly) for OSTimeDly
    appcommunicate.o(i.appSendBluetooth) refers to os_task.o(i.OSTaskSemPend) for OSTaskSemPend
    appcommunicate.o(i.appSendBluetooth) refers to os_task.o(i.OSTaskSuspend) for OSTaskSuspend
    appcommunicate.o(i.appSendBluetooth) refers to stm32f4xx_usart.o(i.USART_ITConfig) for USART_ITConfig
    appcommunicate.o(i.appSendBluetooth) refers to crctable.o(i.crc32Calculate) for crc32Calculate
    appcommunicate.o(i.appSendBluetooth) refers to app.o(.bss) for uavData
    appcommunicate.o(i.appSendBluetooth) refers to appcommunicate.o(.constdata) for wifiCmdReset1
    appcommunicate.o(i.appSendBluetooth) refers to appcommunicate.o(.bss) for wifiBuffer
    appcommunicate.o(i.appSendBluetooth) refers to stm32f4xx_dma.o(i.DMA_ClearFlag) for DMA_ClearFlag
    appcommunicate.o(i.appSendBluetooth) refers to stm32f4xx_dma.o(i.DMA_Cmd) for DMA_Cmd
    appcommunicate.o(i.appSendBluetooth) refers to stm32f4xx_usart.o(i.USART_DMACmd) for USART_DMACmd
    appcommunicate.o(i.appSendBluetooth) refers to os_time.o(i.OSTimeDlyHMSM) for OSTimeDlyHMSM
    appcommunicate.o(i.appSendBluetooth) refers to os_sem.o(i.OSSemPost) for OSSemPost
    appcommunicate.o(i.appSendBluetooth) refers to appcommunicate.o(.data) for uavPara
    appcommunicate.o(i.displayMonitor) refers to os_sem.o(i.OSSemPend) for OSSemPend
    appcommunicate.o(i.displayMonitor) refers to app.o(.bss) for appData
    appcommunicate.o(i.displayMonitor) refers to appcommunicate.o(.bss) for wifiBuffer
    appcommunicate.o(i.usartReadStr) refers to function.o(i.fun_usartRec) for fun_usartRec
    appcommunicate.o(i.usartReadStr) refers to appcommunicate.o(.bss) for wifiReturnBuffer
    appcommunicate.o(i.usartSendStr) refers to function.o(i.fun_usartSend) for fun_usartSend
    appcommunicate.o(.data) refers to app.o(.bss) for uavData
    apppath.o(i.Path_getNextPosRef) refers to apppath.o(i.calculateDis) for calculateDis
    apppath.o(i.Path_getNextPosRef) refers to apppath.o(.bss) for pathData
    apppath.o(i.Path_getNextPosRef) refers to apppath.o(.data) for pathArray
    apppath.o(i.Path_getNextPosRefXYP) refers to apppath.o(i.calculateDis) for calculateDis
    apppath.o(i.Path_getNextPosRefXYP) refers to apppath.o(.bss) for pathData
    apppath.o(i.Path_getNextPosRefXYP) refers to apppath.o(.data) for pathArrayp2
    diskio.o(i.disk_ioctl) refers to uldiv.o(.text) for __aeabi_uldivmod
    diskio.o(i.disk_ioctl) refers to sdio_tf.o(.bss) for sdCardInfo
    diskio.o(i.disk_read) refers to sdio_tf.o(i.SD_ReadMultiBlocks) for SD_ReadMultiBlocks
    diskio.o(i.disk_read) refers to sdio_tf.o(i.SD_WaitReadOperation) for SD_WaitReadOperation
    diskio.o(i.disk_read) refers to sdio_tf.o(i.SD_GetStatus) for SD_GetStatus
    diskio.o(i.disk_read) refers to sdio_tf.o(i.SD_ReadBlock) for SD_ReadBlock
    diskio.o(i.disk_write) refers to sdio_tf.o(i.SD_WriteMultiBlocks) for SD_WriteMultiBlocks
    diskio.o(i.disk_write) refers to sdio_tf.o(i.SD_WaitWriteOperation) for SD_WaitWriteOperation
    diskio.o(i.disk_write) refers to sdio_tf.o(i.SD_GetStatus) for SD_GetStatus
    diskio.o(i.disk_write) refers to sdio_tf.o(i.SD_WriteBlock) for SD_WriteBlock
    ff.o(i.check_fs) refers to ff.o(i.move_window) for move_window
    ff.o(i.check_fs) refers to ff.o(i.ld_word) for ld_word
    ff.o(i.check_fs) refers to ff.o(i.ld_dword) for ld_dword
    ff.o(i.create_chain) refers to ff.o(i.get_fat) for get_fat
    ff.o(i.create_chain) refers to ff.o(i.put_fat) for put_fat
    ff.o(i.create_name) refers to ff.o(i.mem_set) for mem_set
    ff.o(i.create_name) refers to ff.o(i.chk_chr) for chk_chr
    ff.o(i.dir_alloc) refers to ff.o(i.dir_sdi) for dir_sdi
    ff.o(i.dir_alloc) refers to ff.o(i.move_window) for move_window
    ff.o(i.dir_alloc) refers to ff.o(i.dir_next) for dir_next
    ff.o(i.dir_find) refers to ff.o(i.dir_sdi) for dir_sdi
    ff.o(i.dir_find) refers to ff.o(i.move_window) for move_window
    ff.o(i.dir_find) refers to ff.o(i.mem_cmp) for mem_cmp
    ff.o(i.dir_find) refers to ff.o(i.dir_next) for dir_next
    ff.o(i.dir_next) refers to ff.o(i.get_fat) for get_fat
    ff.o(i.dir_next) refers to ff.o(i.create_chain) for create_chain
    ff.o(i.dir_next) refers to ff.o(i.sync_window) for sync_window
    ff.o(i.dir_next) refers to ff.o(i.mem_set) for mem_set
    ff.o(i.dir_next) refers to ff.o(i.clust2sect) for clust2sect
    ff.o(i.dir_read) refers to ff.o(i.move_window) for move_window
    ff.o(i.dir_read) refers to ff.o(i.dir_next) for dir_next
    ff.o(i.dir_register) refers to ff.o(i.dir_alloc) for dir_alloc
    ff.o(i.dir_register) refers to ff.o(i.move_window) for move_window
    ff.o(i.dir_register) refers to ff.o(i.mem_set) for mem_set
    ff.o(i.dir_register) refers to ff.o(i.mem_cpy) for mem_cpy
    ff.o(i.dir_remove) refers to ff.o(i.move_window) for move_window
    ff.o(i.dir_sdi) refers to ff.o(i.get_fat) for get_fat
    ff.o(i.dir_sdi) refers to ff.o(i.clust2sect) for clust2sect
    ff.o(i.f_close) refers to ff.o(i.f_sync) for f_sync
    ff.o(i.f_close) refers to ff.o(i.validate) for validate
    ff.o(i.f_closedir) refers to ff.o(i.validate) for validate
    ff.o(i.f_getfree) refers to ff.o(i.find_volume) for find_volume
    ff.o(i.f_getfree) refers to ff.o(i.get_fat) for get_fat
    ff.o(i.f_getfree) refers to ff.o(i.move_window) for move_window
    ff.o(i.f_getfree) refers to ff.o(i.ld_word) for ld_word
    ff.o(i.f_getfree) refers to ff.o(i.ld_dword) for ld_dword
    ff.o(i.f_gets) refers to ff.o(i.f_read) for f_read
    ff.o(i.f_lseek) refers to ff.o(i.validate) for validate
    ff.o(i.f_lseek) refers to ff.o(i.get_fat) for get_fat
    ff.o(i.f_lseek) refers to ff.o(i.clmt_clust) for clmt_clust
    ff.o(i.f_lseek) refers to ff.o(i.clust2sect) for clust2sect
    ff.o(i.f_lseek) refers to diskio.o(i.disk_write) for disk_write
    ff.o(i.f_lseek) refers to diskio.o(i.disk_read) for disk_read
    ff.o(i.f_lseek) refers to ff.o(i.create_chain) for create_chain
    ff.o(i.f_mkdir) refers to ff.o(i.find_volume) for find_volume
    ff.o(i.f_mkdir) refers to ff.o(i.follow_path) for follow_path
    ff.o(i.f_mkdir) refers to ff.o(i.create_chain) for create_chain
    ff.o(i.f_mkdir) refers to ff.o(i.sync_window) for sync_window
    ff.o(i.f_mkdir) refers to ff_driver.o(i.get_fattime) for get_fattime
    ff.o(i.f_mkdir) refers to ff.o(i.clust2sect) for clust2sect
    ff.o(i.f_mkdir) refers to ff.o(i.mem_set) for mem_set
    ff.o(i.f_mkdir) refers to ff.o(i.st_dword) for st_dword
    ff.o(i.f_mkdir) refers to ff.o(i.st_clust) for st_clust
    ff.o(i.f_mkdir) refers to ff.o(i.mem_cpy) for mem_cpy
    ff.o(i.f_mkdir) refers to ff.o(i.dir_register) for dir_register
    ff.o(i.f_mkdir) refers to ff.o(i.sync_fs) for sync_fs
    ff.o(i.f_mkdir) refers to ff.o(i.remove_chain) for remove_chain
    ff.o(i.f_mount) refers to ff.o(i.get_ldnumber) for get_ldnumber
    ff.o(i.f_mount) refers to ff.o(i.find_volume) for find_volume
    ff.o(i.f_mount) refers to ff.o(.data) for FatFs
    ff.o(i.f_open) refers to ff.o(i.find_volume) for find_volume
    ff.o(i.f_open) refers to ff.o(i.follow_path) for follow_path
    ff.o(i.f_open) refers to ff.o(i.dir_register) for dir_register
    ff.o(i.f_open) refers to ff_driver.o(i.get_fattime) for get_fattime
    ff.o(i.f_open) refers to ff.o(i.st_dword) for st_dword
    ff.o(i.f_open) refers to ff.o(i.ld_clust) for ld_clust
    ff.o(i.f_open) refers to ff.o(i.st_clust) for st_clust
    ff.o(i.f_open) refers to ff.o(i.remove_chain) for remove_chain
    ff.o(i.f_open) refers to ff.o(i.move_window) for move_window
    ff.o(i.f_open) refers to ff.o(i.ld_dword) for ld_dword
    ff.o(i.f_open) refers to ff.o(i.mem_set) for mem_set
    ff.o(i.f_open) refers to ff.o(i.get_fat) for get_fat
    ff.o(i.f_open) refers to ff.o(i.clust2sect) for clust2sect
    ff.o(i.f_open) refers to diskio.o(i.disk_read) for disk_read
    ff.o(i.f_opendir) refers to ff.o(i.find_volume) for find_volume
    ff.o(i.f_opendir) refers to ff.o(i.follow_path) for follow_path
    ff.o(i.f_opendir) refers to ff.o(i.ld_clust) for ld_clust
    ff.o(i.f_opendir) refers to ff.o(i.dir_sdi) for dir_sdi
    ff.o(i.f_printf) refers to ff.o(i.putc_init) for putc_init
    ff.o(i.f_printf) refers to ff.o(i.putc_bfd) for putc_bfd
    ff.o(i.f_printf) refers to ff.o(i.putc_flush) for putc_flush
    ff.o(i.f_putc) refers to ff.o(i.putc_init) for putc_init
    ff.o(i.f_putc) refers to ff.o(i.putc_bfd) for putc_bfd
    ff.o(i.f_putc) refers to ff.o(i.putc_flush) for putc_flush
    ff.o(i.f_puts) refers to ff.o(i.putc_init) for putc_init
    ff.o(i.f_puts) refers to ff.o(i.putc_bfd) for putc_bfd
    ff.o(i.f_puts) refers to ff.o(i.putc_flush) for putc_flush
    ff.o(i.f_read) refers to ff.o(i.validate) for validate
    ff.o(i.f_read) refers to ff.o(i.clmt_clust) for clmt_clust
    ff.o(i.f_read) refers to ff.o(i.get_fat) for get_fat
    ff.o(i.f_read) refers to ff.o(i.clust2sect) for clust2sect
    ff.o(i.f_read) refers to diskio.o(i.disk_read) for disk_read
    ff.o(i.f_read) refers to ff.o(i.mem_cpy) for mem_cpy
    ff.o(i.f_read) refers to diskio.o(i.disk_write) for disk_write
    ff.o(i.f_readdir) refers to ff.o(i.validate) for validate
    ff.o(i.f_readdir) refers to ff.o(i.dir_sdi) for dir_sdi
    ff.o(i.f_readdir) refers to ff.o(i.dir_read) for dir_read
    ff.o(i.f_readdir) refers to ff.o(i.get_fileinfo) for get_fileinfo
    ff.o(i.f_readdir) refers to ff.o(i.dir_next) for dir_next
    ff.o(i.f_rename) refers to ff.o(i.get_ldnumber) for get_ldnumber
    ff.o(i.f_rename) refers to ff.o(i.find_volume) for find_volume
    ff.o(i.f_rename) refers to ff.o(i.follow_path) for follow_path
    ff.o(i.f_rename) refers to ff.o(i.mem_cpy) for mem_cpy
    ff.o(i.f_rename) refers to ff.o(i.dir_register) for dir_register
    ff.o(i.f_rename) refers to ff.o(i.ld_clust) for ld_clust
    ff.o(i.f_rename) refers to ff.o(i.clust2sect) for clust2sect
    ff.o(i.f_rename) refers to ff.o(i.move_window) for move_window
    ff.o(i.f_rename) refers to ff.o(i.st_clust) for st_clust
    ff.o(i.f_rename) refers to ff.o(i.dir_remove) for dir_remove
    ff.o(i.f_rename) refers to ff.o(i.sync_fs) for sync_fs
    ff.o(i.f_stat) refers to ff.o(i.find_volume) for find_volume
    ff.o(i.f_stat) refers to ff.o(i.follow_path) for follow_path
    ff.o(i.f_stat) refers to ff.o(i.get_fileinfo) for get_fileinfo
    ff.o(i.f_sync) refers to ff.o(i.validate) for validate
    ff.o(i.f_sync) refers to diskio.o(i.disk_write) for disk_write
    ff.o(i.f_sync) refers to ff_driver.o(i.get_fattime) for get_fattime
    ff.o(i.f_sync) refers to ff.o(i.move_window) for move_window
    ff.o(i.f_sync) refers to ff.o(i.st_clust) for st_clust
    ff.o(i.f_sync) refers to ff.o(i.st_dword) for st_dword
    ff.o(i.f_sync) refers to ff.o(i.st_word) for st_word
    ff.o(i.f_sync) refers to ff.o(i.sync_fs) for sync_fs
    ff.o(i.f_truncate) refers to ff.o(i.validate) for validate
    ff.o(i.f_truncate) refers to ff.o(i.remove_chain) for remove_chain
    ff.o(i.f_truncate) refers to ff.o(i.get_fat) for get_fat
    ff.o(i.f_truncate) refers to diskio.o(i.disk_write) for disk_write
    ff.o(i.f_unlink) refers to ff.o(i.find_volume) for find_volume
    ff.o(i.f_unlink) refers to ff.o(i.follow_path) for follow_path
    ff.o(i.f_unlink) refers to ff.o(i.ld_clust) for ld_clust
    ff.o(i.f_unlink) refers to ff.o(i.dir_sdi) for dir_sdi
    ff.o(i.f_unlink) refers to ff.o(i.dir_read) for dir_read
    ff.o(i.f_unlink) refers to ff.o(i.dir_remove) for dir_remove
    ff.o(i.f_unlink) refers to ff.o(i.remove_chain) for remove_chain
    ff.o(i.f_unlink) refers to ff.o(i.sync_fs) for sync_fs
    ff.o(i.f_write) refers to ff.o(i.validate) for validate
    ff.o(i.f_write) refers to ff.o(i.create_chain) for create_chain
    ff.o(i.f_write) refers to ff.o(i.clmt_clust) for clmt_clust
    ff.o(i.f_write) refers to diskio.o(i.disk_write) for disk_write
    ff.o(i.f_write) refers to ff.o(i.clust2sect) for clust2sect
    ff.o(i.f_write) refers to ff.o(i.mem_cpy) for mem_cpy
    ff.o(i.f_write) refers to diskio.o(i.disk_read) for disk_read
    ff.o(i.find_volume) refers to ff.o(i.get_ldnumber) for get_ldnumber
    ff.o(i.find_volume) refers to diskio.o(i.disk_status) for disk_status
    ff.o(i.find_volume) refers to diskio.o(i.disk_initialize) for disk_initialize
    ff.o(i.find_volume) refers to ff.o(i.check_fs) for check_fs
    ff.o(i.find_volume) refers to ff.o(i.ld_dword) for ld_dword
    ff.o(i.find_volume) refers to ff.o(i.ld_word) for ld_word
    ff.o(i.find_volume) refers to ff.o(i.move_window) for move_window
    ff.o(i.find_volume) refers to ff.o(.data) for FatFs
    ff.o(i.follow_path) refers to ff.o(i.dir_sdi) for dir_sdi
    ff.o(i.follow_path) refers to ff.o(i.create_name) for create_name
    ff.o(i.follow_path) refers to ff.o(i.dir_find) for dir_find
    ff.o(i.follow_path) refers to ff.o(i.ld_clust) for ld_clust
    ff.o(i.get_fat) refers to ff.o(i.move_window) for move_window
    ff.o(i.get_fat) refers to ff.o(i.ld_word) for ld_word
    ff.o(i.get_fat) refers to ff.o(i.ld_dword) for ld_dword
    ff.o(i.get_fileinfo) refers to ff.o(i.ld_dword) for ld_dword
    ff.o(i.ld_clust) refers to ff.o(i.ld_word) for ld_word
    ff.o(i.move_window) refers to ff.o(i.sync_window) for sync_window
    ff.o(i.move_window) refers to diskio.o(i.disk_read) for disk_read
    ff.o(i.put_fat) refers to ff.o(i.move_window) for move_window
    ff.o(i.put_fat) refers to ff.o(i.st_word) for st_word
    ff.o(i.put_fat) refers to ff.o(i.ld_dword) for ld_dword
    ff.o(i.put_fat) refers to ff.o(i.st_dword) for st_dword
    ff.o(i.putc_bfd) refers to ff.o(i.f_write) for f_write
    ff.o(i.putc_flush) refers to ff.o(i.f_write) for f_write
    ff.o(i.remove_chain) refers to ff.o(i.put_fat) for put_fat
    ff.o(i.remove_chain) refers to ff.o(i.get_fat) for get_fat
    ff.o(i.st_clust) refers to ff.o(i.st_word) for st_word
    ff.o(i.sync_fs) refers to ff.o(i.sync_window) for sync_window
    ff.o(i.sync_fs) refers to ff.o(i.mem_set) for mem_set
    ff.o(i.sync_fs) refers to ff.o(i.st_word) for st_word
    ff.o(i.sync_fs) refers to ff.o(i.st_dword) for st_dword
    ff.o(i.sync_fs) refers to diskio.o(i.disk_write) for disk_write
    ff.o(i.sync_fs) refers to diskio.o(i.disk_ioctl) for disk_ioctl
    ff.o(i.sync_window) refers to diskio.o(i.disk_write) for disk_write
    ff.o(i.validate) refers to diskio.o(i.disk_status) for disk_status
    entry.o(.ARM.Collect$$$$00000000) refers (Special) to entry10a.o(.ARM.Collect$$$$0000000D) for __rt_final_cpp
    entry.o(.ARM.Collect$$$$00000000) refers (Special) to entry11a.o(.ARM.Collect$$$$0000000F) for __rt_final_exit
    entry.o(.ARM.Collect$$$$00000000) refers (Special) to entry7b.o(.ARM.Collect$$$$00000008) for _main_clock
    entry.o(.ARM.Collect$$$$00000000) refers (Special) to entry8b.o(.ARM.Collect$$$$0000000A) for _main_cpp_init
    entry.o(.ARM.Collect$$$$00000000) refers (Special) to entry9a.o(.ARM.Collect$$$$0000000B) for _main_init
    entry.o(.ARM.Collect$$$$00000000) refers (Special) to entry5.o(.ARM.Collect$$$$00000004) for _main_scatterload
    entry.o(.ARM.Collect$$$$00000000) refers (Special) to entry2.o(.ARM.Collect$$$$00000001) for _main_stk
    uldiv.o(.text) refers to llushr.o(.text) for __aeabi_llsr
    uldiv.o(.text) refers to llshl.o(.text) for __aeabi_llsl
    printfb.o(i.__0fprintf$bare) refers to printfb.o(i._printf_core) for _printf_core
    printfb.o(i.__0fprintf$bare) refers to bsp.o(i.fputc) for fputc
    printfb.o(i.__0printf$bare) refers to printfb.o(i._printf_core) for _printf_core
    printfb.o(i.__0printf$bare) refers to bsp.o(i.fputc) for fputc
    printfb.o(i.__0printf$bare) refers to stdout.o(.data) for __stdout
    printfb.o(i.__0snprintf$bare) refers to printfb.o(i._printf_core) for _printf_core
    printfb.o(i.__0snprintf$bare) refers to printfb.o(i._snputc) for _snputc
    printfb.o(i.__0sprintf$bare) refers to printfb.o(i._printf_core) for _printf_core
    printfb.o(i.__0sprintf$bare) refers to printfb.o(i._sputc) for _sputc
    printfb.o(i.__0vfprintf$bare) refers to printfb.o(i._printf_core) for _printf_core
    printfb.o(i.__0vfprintf$bare) refers to bsp.o(i.fputc) for fputc
    printfb.o(i.__0vprintf$bare) refers to printfb.o(i._printf_core) for _printf_core
    printfb.o(i.__0vprintf$bare) refers to bsp.o(i.fputc) for fputc
    printfb.o(i.__0vprintf$bare) refers to stdout.o(.data) for __stdout
    printfb.o(i.__0vsnprintf$bare) refers to printfb.o(i._printf_core) for _printf_core
    printfb.o(i.__0vsnprintf$bare) refers to printfb.o(i._snputc) for _snputc
    printfb.o(i.__0vsprintf$bare) refers to printfb.o(i._printf_core) for _printf_core
    printfb.o(i.__0vsprintf$bare) refers to printfb.o(i._sputc) for _sputc
    printf0.o(i.__0fprintf$0) refers to printf0.o(i._printf_core) for _printf_core
    printf0.o(i.__0fprintf$0) refers to bsp.o(i.fputc) for fputc
    printf0.o(i.__0printf$0) refers to printf0.o(i._printf_core) for _printf_core
    printf0.o(i.__0printf$0) refers to bsp.o(i.fputc) for fputc
    printf0.o(i.__0printf$0) refers to stdout.o(.data) for __stdout
    printf0.o(i.__0snprintf$0) refers to printf0.o(i._printf_core) for _printf_core
    printf0.o(i.__0snprintf$0) refers to printf0.o(i._snputc) for _snputc
    printf0.o(i.__0sprintf$0) refers to printf0.o(i._printf_core) for _printf_core
    printf0.o(i.__0sprintf$0) refers to printf0.o(i._sputc) for _sputc
    printf0.o(i.__0vfprintf$0) refers to printf0.o(i._printf_core) for _printf_core
    printf0.o(i.__0vfprintf$0) refers to bsp.o(i.fputc) for fputc
    printf0.o(i.__0vprintf$0) refers to printf0.o(i._printf_core) for _printf_core
    printf0.o(i.__0vprintf$0) refers to bsp.o(i.fputc) for fputc
    printf0.o(i.__0vprintf$0) refers to stdout.o(.data) for __stdout
    printf0.o(i.__0vsnprintf$0) refers to printf0.o(i._printf_core) for _printf_core
    printf0.o(i.__0vsnprintf$0) refers to printf0.o(i._snputc) for _snputc
    printf0.o(i.__0vsprintf$0) refers to printf0.o(i._printf_core) for _printf_core
    printf0.o(i.__0vsprintf$0) refers to printf0.o(i._sputc) for _sputc
    printf1.o(i.__0fprintf$1) refers to printf1.o(i._printf_core) for _printf_core
    printf1.o(i.__0fprintf$1) refers to bsp.o(i.fputc) for fputc
    printf1.o(i.__0printf$1) refers to printf1.o(i._printf_core) for _printf_core
    printf1.o(i.__0printf$1) refers to bsp.o(i.fputc) for fputc
    printf1.o(i.__0printf$1) refers to stdout.o(.data) for __stdout
    printf1.o(i.__0snprintf$1) refers to printf1.o(i._printf_core) for _printf_core
    printf1.o(i.__0snprintf$1) refers to printf1.o(i._snputc) for _snputc
    printf1.o(i.__0sprintf$1) refers to printf1.o(i._printf_core) for _printf_core
    printf1.o(i.__0sprintf$1) refers to printf1.o(i._sputc) for _sputc
    printf1.o(i.__0vfprintf$1) refers to printf1.o(i._printf_core) for _printf_core
    printf1.o(i.__0vfprintf$1) refers to bsp.o(i.fputc) for fputc
    printf1.o(i.__0vprintf$1) refers to printf1.o(i._printf_core) for _printf_core
    printf1.o(i.__0vprintf$1) refers to bsp.o(i.fputc) for fputc
    printf1.o(i.__0vprintf$1) refers to stdout.o(.data) for __stdout
    printf1.o(i.__0vsnprintf$1) refers to printf1.o(i._printf_core) for _printf_core
    printf1.o(i.__0vsnprintf$1) refers to printf1.o(i._snputc) for _snputc
    printf1.o(i.__0vsprintf$1) refers to printf1.o(i._printf_core) for _printf_core
    printf1.o(i.__0vsprintf$1) refers to printf1.o(i._sputc) for _sputc
    printf1.o(i._printf_core) refers to uidiv.o(.text) for __aeabi_uidivmod
    printf2.o(i.__0fprintf$2) refers to printf2.o(i._printf_core) for _printf_core
    printf2.o(i.__0fprintf$2) refers to bsp.o(i.fputc) for fputc
    printf2.o(i.__0printf$2) refers to printf2.o(i._printf_core) for _printf_core
    printf2.o(i.__0printf$2) refers to bsp.o(i.fputc) for fputc
    printf2.o(i.__0printf$2) refers to stdout.o(.data) for __stdout
    printf2.o(i.__0snprintf$2) refers to printf2.o(i._printf_core) for _printf_core
    printf2.o(i.__0snprintf$2) refers to printf2.o(i._snputc) for _snputc
    printf2.o(i.__0sprintf$2) refers to printf2.o(i._printf_core) for _printf_core
    printf2.o(i.__0sprintf$2) refers to printf2.o(i._sputc) for _sputc
    printf2.o(i.__0vfprintf$2) refers to printf2.o(i._printf_core) for _printf_core
    printf2.o(i.__0vfprintf$2) refers to bsp.o(i.fputc) for fputc
    printf2.o(i.__0vprintf$2) refers to printf2.o(i._printf_core) for _printf_core
    printf2.o(i.__0vprintf$2) refers to bsp.o(i.fputc) for fputc
    printf2.o(i.__0vprintf$2) refers to stdout.o(.data) for __stdout
    printf2.o(i.__0vsnprintf$2) refers to printf2.o(i._printf_core) for _printf_core
    printf2.o(i.__0vsnprintf$2) refers to printf2.o(i._snputc) for _snputc
    printf2.o(i.__0vsprintf$2) refers to printf2.o(i._printf_core) for _printf_core
    printf2.o(i.__0vsprintf$2) refers to printf2.o(i._sputc) for _sputc
    printf3.o(i.__0fprintf$3) refers to printf3.o(i._printf_core) for _printf_core
    printf3.o(i.__0fprintf$3) refers to bsp.o(i.fputc) for fputc
    printf3.o(i.__0printf$3) refers to printf3.o(i._printf_core) for _printf_core
    printf3.o(i.__0printf$3) refers to bsp.o(i.fputc) for fputc
    printf3.o(i.__0printf$3) refers to stdout.o(.data) for __stdout
    printf3.o(i.__0snprintf$3) refers to printf3.o(i._printf_core) for _printf_core
    printf3.o(i.__0snprintf$3) refers to printf3.o(i._snputc) for _snputc
    printf3.o(i.__0sprintf$3) refers to printf3.o(i._printf_core) for _printf_core
    printf3.o(i.__0sprintf$3) refers to printf3.o(i._sputc) for _sputc
    printf3.o(i.__0vfprintf$3) refers to printf3.o(i._printf_core) for _printf_core
    printf3.o(i.__0vfprintf$3) refers to bsp.o(i.fputc) for fputc
    printf3.o(i.__0vprintf$3) refers to printf3.o(i._printf_core) for _printf_core
    printf3.o(i.__0vprintf$3) refers to bsp.o(i.fputc) for fputc
    printf3.o(i.__0vprintf$3) refers to stdout.o(.data) for __stdout
    printf3.o(i.__0vsnprintf$3) refers to printf3.o(i._printf_core) for _printf_core
    printf3.o(i.__0vsnprintf$3) refers to printf3.o(i._snputc) for _snputc
    printf3.o(i.__0vsprintf$3) refers to printf3.o(i._printf_core) for _printf_core
    printf3.o(i.__0vsprintf$3) refers to printf3.o(i._sputc) for _sputc
    printf3.o(i._printf_core) refers to uidiv.o(.text) for __aeabi_uidivmod
    printf4.o(i.__0fprintf$4) refers to printf4.o(i._printf_core) for _printf_core
    printf4.o(i.__0fprintf$4) refers to bsp.o(i.fputc) for fputc
    printf4.o(i.__0printf$4) refers to printf4.o(i._printf_core) for _printf_core
    printf4.o(i.__0printf$4) refers to bsp.o(i.fputc) for fputc
    printf4.o(i.__0printf$4) refers to stdout.o(.data) for __stdout
    printf4.o(i.__0snprintf$4) refers to printf4.o(i._printf_core) for _printf_core
    printf4.o(i.__0snprintf$4) refers to printf4.o(i._snputc) for _snputc
    printf4.o(i.__0sprintf$4) refers to printf4.o(i._printf_core) for _printf_core
    printf4.o(i.__0sprintf$4) refers to printf4.o(i._sputc) for _sputc
    printf4.o(i.__0vfprintf$4) refers to printf4.o(i._printf_core) for _printf_core
    printf4.o(i.__0vfprintf$4) refers to bsp.o(i.fputc) for fputc
    printf4.o(i.__0vprintf$4) refers to printf4.o(i._printf_core) for _printf_core
    printf4.o(i.__0vprintf$4) refers to bsp.o(i.fputc) for fputc
    printf4.o(i.__0vprintf$4) refers to stdout.o(.data) for __stdout
    printf4.o(i.__0vsnprintf$4) refers to printf4.o(i._printf_core) for _printf_core
    printf4.o(i.__0vsnprintf$4) refers to printf4.o(i._snputc) for _snputc
    printf4.o(i.__0vsprintf$4) refers to printf4.o(i._printf_core) for _printf_core
    printf4.o(i.__0vsprintf$4) refers to printf4.o(i._sputc) for _sputc
    printf4.o(i._printf_core) refers to uldiv.o(.text) for __aeabi_uldivmod
    printf5.o(i.__0fprintf$5) refers to printf5.o(i._printf_core) for _printf_core
    printf5.o(i.__0fprintf$5) refers to bsp.o(i.fputc) for fputc
    printf5.o(i.__0printf$5) refers to printf5.o(i._printf_core) for _printf_core
    printf5.o(i.__0printf$5) refers to bsp.o(i.fputc) for fputc
    printf5.o(i.__0printf$5) refers to stdout.o(.data) for __stdout
    printf5.o(i.__0snprintf$5) refers to printf5.o(i._printf_core) for _printf_core
    printf5.o(i.__0snprintf$5) refers to printf5.o(i._snputc) for _snputc
    printf5.o(i.__0sprintf$5) refers to printf5.o(i._printf_core) for _printf_core
    printf5.o(i.__0sprintf$5) refers to printf5.o(i._sputc) for _sputc
    printf5.o(i.__0vfprintf$5) refers to printf5.o(i._printf_core) for _printf_core
    printf5.o(i.__0vfprintf$5) refers to bsp.o(i.fputc) for fputc
    printf5.o(i.__0vprintf$5) refers to printf5.o(i._printf_core) for _printf_core
    printf5.o(i.__0vprintf$5) refers to bsp.o(i.fputc) for fputc
    printf5.o(i.__0vprintf$5) refers to stdout.o(.data) for __stdout
    printf5.o(i.__0vsnprintf$5) refers to printf5.o(i._printf_core) for _printf_core
    printf5.o(i.__0vsnprintf$5) refers to printf5.o(i._snputc) for _snputc
    printf5.o(i.__0vsprintf$5) refers to printf5.o(i._printf_core) for _printf_core
    printf5.o(i.__0vsprintf$5) refers to printf5.o(i._sputc) for _sputc
    printf5.o(i._printf_core) refers to uldiv.o(.text) for __aeabi_uldivmod
    printf6.o(i.__0fprintf$6) refers to printf6.o(i._printf_core) for _printf_core
    printf6.o(i.__0fprintf$6) refers to bsp.o(i.fputc) for fputc
    printf6.o(i.__0printf$6) refers to printf6.o(i._printf_core) for _printf_core
    printf6.o(i.__0printf$6) refers to bsp.o(i.fputc) for fputc
    printf6.o(i.__0printf$6) refers to stdout.o(.data) for __stdout
    printf6.o(i.__0snprintf$6) refers to printf6.o(i._printf_core) for _printf_core
    printf6.o(i.__0snprintf$6) refers to printf6.o(i._snputc) for _snputc
    printf6.o(i.__0sprintf$6) refers to printf6.o(i._printf_core) for _printf_core
    printf6.o(i.__0sprintf$6) refers to printf6.o(i._sputc) for _sputc
    printf6.o(i.__0vfprintf$6) refers to printf6.o(i._printf_core) for _printf_core
    printf6.o(i.__0vfprintf$6) refers to bsp.o(i.fputc) for fputc
    printf6.o(i.__0vprintf$6) refers to printf6.o(i._printf_core) for _printf_core
    printf6.o(i.__0vprintf$6) refers to bsp.o(i.fputc) for fputc
    printf6.o(i.__0vprintf$6) refers to stdout.o(.data) for __stdout
    printf6.o(i.__0vsnprintf$6) refers to printf6.o(i._printf_core) for _printf_core
    printf6.o(i.__0vsnprintf$6) refers to printf6.o(i._snputc) for _snputc
    printf6.o(i.__0vsprintf$6) refers to printf6.o(i._printf_core) for _printf_core
    printf6.o(i.__0vsprintf$6) refers to printf6.o(i._sputc) for _sputc
    printf6.o(i._printf_core) refers to printf6.o(i._printf_pre_padding) for _printf_pre_padding
    printf6.o(i._printf_core) refers to uidiv.o(.text) for __aeabi_uidivmod
    printf6.o(i._printf_core) refers to printf6.o(i._printf_post_padding) for _printf_post_padding
    printf7.o(i.__0fprintf$7) refers to printf7.o(i._printf_core) for _printf_core
    printf7.o(i.__0fprintf$7) refers to bsp.o(i.fputc) for fputc
    printf7.o(i.__0printf$7) refers to printf7.o(i._printf_core) for _printf_core
    printf7.o(i.__0printf$7) refers to bsp.o(i.fputc) for fputc
    printf7.o(i.__0printf$7) refers to stdout.o(.data) for __stdout
    printf7.o(i.__0snprintf$7) refers to printf7.o(i._printf_core) for _printf_core
    printf7.o(i.__0snprintf$7) refers to printf7.o(i._snputc) for _snputc
    printf7.o(i.__0sprintf$7) refers to printf7.o(i._printf_core) for _printf_core
    printf7.o(i.__0sprintf$7) refers to printf7.o(i._sputc) for _sputc
    printf7.o(i.__0vfprintf$7) refers to printf7.o(i._printf_core) for _printf_core
    printf7.o(i.__0vfprintf$7) refers to bsp.o(i.fputc) for fputc
    printf7.o(i.__0vprintf$7) refers to printf7.o(i._printf_core) for _printf_core
    printf7.o(i.__0vprintf$7) refers to bsp.o(i.fputc) for fputc
    printf7.o(i.__0vprintf$7) refers to stdout.o(.data) for __stdout
    printf7.o(i.__0vsnprintf$7) refers to printf7.o(i._printf_core) for _printf_core
    printf7.o(i.__0vsnprintf$7) refers to printf7.o(i._snputc) for _snputc
    printf7.o(i.__0vsprintf$7) refers to printf7.o(i._printf_core) for _printf_core
    printf7.o(i.__0vsprintf$7) refers to printf7.o(i._sputc) for _sputc
    printf7.o(i._printf_core) refers to printf7.o(i._printf_pre_padding) for _printf_pre_padding
    printf7.o(i._printf_core) refers to uldiv.o(.text) for __aeabi_uldivmod
    printf7.o(i._printf_core) refers to printf7.o(i._printf_post_padding) for _printf_post_padding
    printf8.o(i.__0fprintf$8) refers to printf8.o(i._printf_core) for _printf_core
    printf8.o(i.__0fprintf$8) refers to bsp.o(i.fputc) for fputc
    printf8.o(i.__0printf$8) refers to printf8.o(i._printf_core) for _printf_core
    printf8.o(i.__0printf$8) refers to bsp.o(i.fputc) for fputc
    printf8.o(i.__0printf$8) refers to stdout.o(.data) for __stdout
    printf8.o(i.__0snprintf$8) refers to printf8.o(i._printf_core) for _printf_core
    printf8.o(i.__0snprintf$8) refers to printf8.o(i._snputc) for _snputc
    printf8.o(i.__0sprintf$8) refers to printf8.o(i._printf_core) for _printf_core
    printf8.o(i.__0sprintf$8) refers to printf8.o(i._sputc) for _sputc
    printf8.o(i.__0vfprintf$8) refers to printf8.o(i._printf_core) for _printf_core
    printf8.o(i.__0vfprintf$8) refers to bsp.o(i.fputc) for fputc
    printf8.o(i.__0vprintf$8) refers to printf8.o(i._printf_core) for _printf_core
    printf8.o(i.__0vprintf$8) refers to bsp.o(i.fputc) for fputc
    printf8.o(i.__0vprintf$8) refers to stdout.o(.data) for __stdout
    printf8.o(i.__0vsnprintf$8) refers to printf8.o(i._printf_core) for _printf_core
    printf8.o(i.__0vsnprintf$8) refers to printf8.o(i._snputc) for _snputc
    printf8.o(i.__0vsprintf$8) refers to printf8.o(i._printf_core) for _printf_core
    printf8.o(i.__0vsprintf$8) refers to printf8.o(i._sputc) for _sputc
    printf8.o(i._printf_core) refers to printf8.o(i._printf_pre_padding) for _printf_pre_padding
    printf8.o(i._printf_core) refers to uldiv.o(.text) for __aeabi_uldivmod
    printf8.o(i._printf_core) refers to printf8.o(i._printf_post_padding) for _printf_post_padding
    printfa.o(i.__0fprintf) refers (Special) to iusefp.o(.text) for __I$use$fp
    printfa.o(i.__0fprintf) refers to printfa.o(i._printf_core) for _printf_core
    printfa.o(i.__0fprintf) refers to bsp.o(i.fputc) for fputc
    printfa.o(i.__0printf) refers (Special) to iusefp.o(.text) for __I$use$fp
    printfa.o(i.__0printf) refers to printfa.o(i._printf_core) for _printf_core
    printfa.o(i.__0printf) refers to bsp.o(i.fputc) for fputc
    printfa.o(i.__0printf) refers to stdout.o(.data) for __stdout
    printfa.o(i.__0snprintf) refers (Special) to iusefp.o(.text) for __I$use$fp
    printfa.o(i.__0snprintf) refers to printfa.o(i._printf_core) for _printf_core
    printfa.o(i.__0snprintf) refers to printfa.o(i._snputc) for _snputc
    printfa.o(i.__0sprintf) refers (Special) to iusefp.o(.text) for __I$use$fp
    printfa.o(i.__0sprintf) refers to printfa.o(i._printf_core) for _printf_core
    printfa.o(i.__0sprintf) refers to printfa.o(i._sputc) for _sputc
    printfa.o(i.__0vfprintf) refers (Special) to iusefp.o(.text) for __I$use$fp
    printfa.o(i.__0vfprintf) refers to printfa.o(i._printf_core) for _printf_core
    printfa.o(i.__0vfprintf) refers to bsp.o(i.fputc) for fputc
    printfa.o(i.__0vprintf) refers (Special) to iusefp.o(.text) for __I$use$fp
    printfa.o(i.__0vprintf) refers to printfa.o(i._printf_core) for _printf_core
    printfa.o(i.__0vprintf) refers to bsp.o(i.fputc) for fputc
    printfa.o(i.__0vprintf) refers to stdout.o(.data) for __stdout
    printfa.o(i.__0vsnprintf) refers (Special) to iusefp.o(.text) for __I$use$fp
    printfa.o(i.__0vsnprintf) refers to printfa.o(i._printf_core) for _printf_core
    printfa.o(i.__0vsnprintf) refers to printfa.o(i._snputc) for _snputc
    printfa.o(i.__0vsprintf) refers (Special) to iusefp.o(.text) for __I$use$fp
    printfa.o(i.__0vsprintf) refers to printfa.o(i._printf_core) for _printf_core
    printfa.o(i.__0vsprintf) refers to printfa.o(i._sputc) for _sputc
    printfa.o(i._fp_digits) refers (Special) to iusefp.o(.text) for __I$use$fp
    printfa.o(i._fp_digits) refers to dmul.o(.text) for __aeabi_dmul
    printfa.o(i._fp_digits) refers to ddiv.o(.text) for __aeabi_ddiv
    printfa.o(i._fp_digits) refers to cdrcmple.o(.text) for __aeabi_cdrcmple
    printfa.o(i._fp_digits) refers to dadd.o(.text) for __aeabi_dadd
    printfa.o(i._fp_digits) refers to dfixul.o(.text) for __aeabi_d2ulz
    printfa.o(i._fp_digits) refers to uldiv.o(.text) for __aeabi_uldivmod
    printfa.o(i._printf_core) refers (Special) to iusefp.o(.text) for __I$use$fp
    printfa.o(i._printf_core) refers to printfa.o(i._printf_pre_padding) for _printf_pre_padding
    printfa.o(i._printf_core) refers to uldiv.o(.text) for __aeabi_uldivmod
    printfa.o(i._printf_core) refers to printfa.o(i._printf_post_padding) for _printf_post_padding
    printfa.o(i._printf_core) refers to printfa.o(i._fp_digits) for _fp_digits
    printfa.o(i._printf_core) refers to uidiv.o(.text) for __aeabi_uidivmod
    printfa.o(i._printf_post_padding) refers (Special) to iusefp.o(.text) for __I$use$fp
    printfa.o(i._printf_pre_padding) refers (Special) to iusefp.o(.text) for __I$use$fp
    printfa.o(i._snputc) refers (Special) to iusefp.o(.text) for __I$use$fp
    printfa.o(i._sputc) refers (Special) to iusefp.o(.text) for __I$use$fp
    f2d.o(.text) refers (Special) to iusefp.o(.text) for __I$use$fp
    entry2.o(.ARM.Collect$$$$00000001) refers to entry2.o(.ARM.Collect$$$$00002712) for __lit__00000000
    entry2.o(.ARM.Collect$$$$00002712) refers to startup_stm32f40_41xxx.o(STACK) for __initial_sp
    entry2.o(__vectab_stack_and_reset_area) refers to startup_stm32f40_41xxx.o(STACK) for __initial_sp
    entry2.o(__vectab_stack_and_reset_area) refers to entry.o(.ARM.Collect$$$$00000000) for __main
    entry5.o(.ARM.Collect$$$$00000004) refers to init.o(.text) for __scatterload
    entry9a.o(.ARM.Collect$$$$0000000B) refers to main.o(i.main) for main
    entry9b.o(.ARM.Collect$$$$0000000C) refers to main.o(i.main) for main
    dadd.o(.text) refers to llshl.o(.text) for __aeabi_llsl
    dadd.o(.text) refers to llsshr.o(.text) for __aeabi_lasr
    dadd.o(.text) refers to depilogue.o(.text) for _double_epilogue
    dmul.o(.text) refers to depilogue.o(.text) for _double_epilogue
    ddiv.o(.text) refers to depilogue.o(.text) for _double_round
    dfixul.o(.text) refers to llushr.o(.text) for __aeabi_llsr
    dfixul.o(.text) refers to llshl.o(.text) for __aeabi_llsl
    init.o(.text) refers to entry5.o(.ARM.Collect$$$$00000004) for __main_after_scatterload
    depilogue.o(.text) refers to llshl.o(.text) for __aeabi_llsl
    depilogue.o(.text) refers to llushr.o(.text) for __aeabi_llsr


==============================================================================

Removing Unused input sections from the image.

    Removing startup_stm32f40_41xxx.o(HEAP), (512 bytes).
    Removing system_stm32f4xx.o(.rev16_text), (4 bytes).
    Removing system_stm32f4xx.o(.revsh_text), (4 bytes).
    Removing system_stm32f4xx.o(.rrx_text), (6 bytes).
    Removing system_stm32f4xx.o(i.SystemCoreClockUpdate), (192 bytes).
    Removing system_stm32f4xx.o(.data), (20 bytes).
    Removing misc.o(.rev16_text), (4 bytes).
    Removing misc.o(.revsh_text), (4 bytes).
    Removing misc.o(.rrx_text), (6 bytes).
    Removing misc.o(i.NVIC_SetVectorTable), (20 bytes).
    Removing misc.o(i.NVIC_SystemLPConfig), (32 bytes).
    Removing misc.o(i.SysTick_CLKSourceConfig), (40 bytes).
    Removing stm32f4xx_adc.o(.rev16_text), (4 bytes).
    Removing stm32f4xx_adc.o(.revsh_text), (4 bytes).
    Removing stm32f4xx_adc.o(.rrx_text), (6 bytes).
    Removing stm32f4xx_adc.o(i.ADC_AnalogWatchdogCmd), (20 bytes).
    Removing stm32f4xx_adc.o(i.ADC_AnalogWatchdogSingleChannelConfig), (16 bytes).
    Removing stm32f4xx_adc.o(i.ADC_AnalogWatchdogThresholdsConfig), (6 bytes).
    Removing stm32f4xx_adc.o(i.ADC_AutoInjectedConvCmd), (22 bytes).
    Removing stm32f4xx_adc.o(i.ADC_ClearFlag), (6 bytes).
    Removing stm32f4xx_adc.o(i.ADC_ClearITPendingBit), (10 bytes).
    Removing stm32f4xx_adc.o(i.ADC_Cmd), (22 bytes).
    Removing stm32f4xx_adc.o(i.ADC_CommonInit), (48 bytes).
    Removing stm32f4xx_adc.o(i.ADC_CommonStructInit), (12 bytes).
    Removing stm32f4xx_adc.o(i.ADC_ContinuousModeCmd), (22 bytes).
    Removing stm32f4xx_adc.o(i.ADC_DMACmd), (22 bytes).
    Removing stm32f4xx_adc.o(i.ADC_DMARequestAfterLastTransferCmd), (22 bytes).
    Removing stm32f4xx_adc.o(i.ADC_DeInit), (22 bytes).
    Removing stm32f4xx_adc.o(i.ADC_DiscModeChannelCountConfig), (24 bytes).
    Removing stm32f4xx_adc.o(i.ADC_DiscModeCmd), (22 bytes).
    Removing stm32f4xx_adc.o(i.ADC_EOCOnEachRegularChannelCmd), (22 bytes).
    Removing stm32f4xx_adc.o(i.ADC_ExternalTrigInjectedConvConfig), (16 bytes).
    Removing stm32f4xx_adc.o(i.ADC_ExternalTrigInjectedConvEdgeConfig), (16 bytes).
    Removing stm32f4xx_adc.o(i.ADC_GetConversionValue), (8 bytes).
    Removing stm32f4xx_adc.o(i.ADC_GetFlagStatus), (18 bytes).
    Removing stm32f4xx_adc.o(i.ADC_GetITStatus), (38 bytes).
    Removing stm32f4xx_adc.o(i.ADC_GetInjectedConversionValue), (28 bytes).
    Removing stm32f4xx_adc.o(i.ADC_GetMultiModeConversionValue), (12 bytes).
    Removing stm32f4xx_adc.o(i.ADC_GetSoftwareStartConvStatus), (20 bytes).
    Removing stm32f4xx_adc.o(i.ADC_GetSoftwareStartInjectedConvCmdStatus), (20 bytes).
    Removing stm32f4xx_adc.o(i.ADC_ITConfig), (32 bytes).
    Removing stm32f4xx_adc.o(i.ADC_Init), (84 bytes).
    Removing stm32f4xx_adc.o(i.ADC_InjectedChannelConfig), (130 bytes).
    Removing stm32f4xx_adc.o(i.ADC_InjectedDiscModeCmd), (22 bytes).
    Removing stm32f4xx_adc.o(i.ADC_InjectedSequencerLengthConfig), (24 bytes).
    Removing stm32f4xx_adc.o(i.ADC_MultiModeDMARequestAfterLastTransferCmd), (44 bytes).
    Removing stm32f4xx_adc.o(i.ADC_RegularChannelConfig), (184 bytes).
    Removing stm32f4xx_adc.o(i.ADC_SetInjectedOffset), (20 bytes).
    Removing stm32f4xx_adc.o(i.ADC_SoftwareStartConv), (10 bytes).
    Removing stm32f4xx_adc.o(i.ADC_SoftwareStartInjectedConv), (10 bytes).
    Removing stm32f4xx_adc.o(i.ADC_StructInit), (20 bytes).
    Removing stm32f4xx_adc.o(i.ADC_TempSensorVrefintCmd), (44 bytes).
    Removing stm32f4xx_adc.o(i.ADC_VBATCmd), (44 bytes).
    Removing stm32f4xx_dma.o(.rev16_text), (4 bytes).
    Removing stm32f4xx_dma.o(.revsh_text), (4 bytes).
    Removing stm32f4xx_dma.o(.rrx_text), (6 bytes).
    Removing stm32f4xx_dma.o(i.DMA_DoubleBufferModeCmd), (22 bytes).
    Removing stm32f4xx_dma.o(i.DMA_DoubleBufferModeConfig), (24 bytes).
    Removing stm32f4xx_dma.o(i.DMA_GetCmdStatus), (20 bytes).
    Removing stm32f4xx_dma.o(i.DMA_GetCurrDataCounter), (8 bytes).
    Removing stm32f4xx_dma.o(i.DMA_GetCurrentMemoryTarget), (20 bytes).
    Removing stm32f4xx_dma.o(i.DMA_GetFIFOStatus), (12 bytes).
    Removing stm32f4xx_dma.o(i.DMA_GetFlagStatus), (68 bytes).
    Removing stm32f4xx_dma.o(i.DMA_MemoryTargetConfig), (10 bytes).
    Removing stm32f4xx_dma.o(i.DMA_PeriphIncOffsetSizeConfig), (22 bytes).
    Removing stm32f4xx_dma.o(i.DMA_SetCurrDataCounter), (4 bytes).
    Removing stm32f4xx_dma.o(i.DMA_StructInit), (34 bytes).
    Removing stm32f4xx_exti.o(.rev16_text), (4 bytes).
    Removing stm32f4xx_exti.o(.revsh_text), (4 bytes).
    Removing stm32f4xx_exti.o(.rrx_text), (6 bytes).
    Removing stm32f4xx_exti.o(i.EXTI_ClearFlag), (12 bytes).
    Removing stm32f4xx_exti.o(i.EXTI_DeInit), (36 bytes).
    Removing stm32f4xx_exti.o(i.EXTI_GenerateSWInterrupt), (16 bytes).
    Removing stm32f4xx_exti.o(i.EXTI_GetFlagStatus), (24 bytes).
    Removing stm32f4xx_exti.o(i.EXTI_Init), (148 bytes).
    Removing stm32f4xx_exti.o(i.EXTI_StructInit), (16 bytes).
    Removing stm32f4xx_gpio.o(.rev16_text), (4 bytes).
    Removing stm32f4xx_gpio.o(.revsh_text), (4 bytes).
    Removing stm32f4xx_gpio.o(.rrx_text), (6 bytes).
    Removing stm32f4xx_gpio.o(i.GPIO_DeInit), (312 bytes).
    Removing stm32f4xx_gpio.o(i.GPIO_PinLockConfig), (34 bytes).
    Removing stm32f4xx_gpio.o(i.GPIO_ReadInputData), (8 bytes).
    Removing stm32f4xx_gpio.o(i.GPIO_ReadInputDataBit), (18 bytes).
    Removing stm32f4xx_gpio.o(i.GPIO_ReadOutputData), (8 bytes).
    Removing stm32f4xx_gpio.o(i.GPIO_ReadOutputDataBit), (18 bytes).
    Removing stm32f4xx_gpio.o(i.GPIO_ResetBits), (4 bytes).
    Removing stm32f4xx_gpio.o(i.GPIO_SetBits), (4 bytes).
    Removing stm32f4xx_gpio.o(i.GPIO_StructInit), (18 bytes).
    Removing stm32f4xx_gpio.o(i.GPIO_ToggleBits), (8 bytes).
    Removing stm32f4xx_gpio.o(i.GPIO_Write), (4 bytes).
    Removing stm32f4xx_gpio.o(i.GPIO_WriteBit), (10 bytes).
    Removing stm32f4xx_rcc.o(.rev16_text), (4 bytes).
    Removing stm32f4xx_rcc.o(.revsh_text), (4 bytes).
    Removing stm32f4xx_rcc.o(.rrx_text), (6 bytes).
    Removing stm32f4xx_rcc.o(i.RCC_AHB1PeriphClockLPModeCmd), (32 bytes).
    Removing stm32f4xx_rcc.o(i.RCC_AHB1PeriphResetCmd), (32 bytes).
    Removing stm32f4xx_rcc.o(i.RCC_AHB2PeriphClockCmd), (32 bytes).
    Removing stm32f4xx_rcc.o(i.RCC_AHB2PeriphClockLPModeCmd), (32 bytes).
    Removing stm32f4xx_rcc.o(i.RCC_AHB2PeriphResetCmd), (32 bytes).
    Removing stm32f4xx_rcc.o(i.RCC_AHB3PeriphClockCmd), (32 bytes).
    Removing stm32f4xx_rcc.o(i.RCC_AHB3PeriphClockLPModeCmd), (32 bytes).
    Removing stm32f4xx_rcc.o(i.RCC_AHB3PeriphResetCmd), (32 bytes).
    Removing stm32f4xx_rcc.o(i.RCC_APB1PeriphClockLPModeCmd), (32 bytes).
    Removing stm32f4xx_rcc.o(i.RCC_APB2PeriphClockLPModeCmd), (32 bytes).
    Removing stm32f4xx_rcc.o(i.RCC_AdjustHSICalibrationValue), (24 bytes).
    Removing stm32f4xx_rcc.o(i.RCC_BackupResetCmd), (12 bytes).
    Removing stm32f4xx_rcc.o(i.RCC_ClearFlag), (20 bytes).
    Removing stm32f4xx_rcc.o(i.RCC_ClearITPendingBit), (12 bytes).
    Removing stm32f4xx_rcc.o(i.RCC_ClockSecuritySystemCmd), (12 bytes).
    Removing stm32f4xx_rcc.o(i.RCC_DeInit), (100 bytes).
    Removing stm32f4xx_rcc.o(i.RCC_GetFlagStatus), (64 bytes).
    Removing stm32f4xx_rcc.o(i.RCC_GetITStatus), (24 bytes).
    Removing stm32f4xx_rcc.o(i.RCC_GetSYSCLKSource), (16 bytes).
    Removing stm32f4xx_rcc.o(i.RCC_HCLKConfig), (24 bytes).
    Removing stm32f4xx_rcc.o(i.RCC_HSEConfig), (16 bytes).
    Removing stm32f4xx_rcc.o(i.RCC_HSICmd), (12 bytes).
    Removing stm32f4xx_rcc.o(i.RCC_I2SCLKConfig), (12 bytes).
    Removing stm32f4xx_rcc.o(i.RCC_ITConfig), (32 bytes).
    Removing stm32f4xx_rcc.o(i.RCC_LSEConfig), (44 bytes).
    Removing stm32f4xx_rcc.o(i.RCC_LSEModeConfig), (36 bytes).
    Removing stm32f4xx_rcc.o(i.RCC_LSICmd), (12 bytes).
    Removing stm32f4xx_rcc.o(i.RCC_LTDCCLKDivConfig), (24 bytes).
    Removing stm32f4xx_rcc.o(i.RCC_MCO1Config), (28 bytes).
    Removing stm32f4xx_rcc.o(i.RCC_MCO2Config), (28 bytes).
    Removing stm32f4xx_rcc.o(i.RCC_PCLK1Config), (24 bytes).
    Removing stm32f4xx_rcc.o(i.RCC_PCLK2Config), (24 bytes).
    Removing stm32f4xx_rcc.o(i.RCC_PLLCmd), (12 bytes).
    Removing stm32f4xx_rcc.o(i.RCC_PLLConfig), (36 bytes).
    Removing stm32f4xx_rcc.o(i.RCC_PLLI2SCmd), (12 bytes).
    Removing stm32f4xx_rcc.o(i.RCC_PLLI2SConfig), (16 bytes).
    Removing stm32f4xx_rcc.o(i.RCC_PLLSAICmd), (12 bytes).
    Removing stm32f4xx_rcc.o(i.RCC_PLLSAIConfig), (24 bytes).
    Removing stm32f4xx_rcc.o(i.RCC_RTCCLKCmd), (12 bytes).
    Removing stm32f4xx_rcc.o(i.RCC_RTCCLKConfig), (60 bytes).
    Removing stm32f4xx_rcc.o(i.RCC_SAIBlockACLKConfig), (24 bytes).
    Removing stm32f4xx_rcc.o(i.RCC_SAIBlockBCLKConfig), (24 bytes).
    Removing stm32f4xx_rcc.o(i.RCC_SAIPLLI2SClkDivConfig), (28 bytes).
    Removing stm32f4xx_rcc.o(i.RCC_SAIPLLSAIClkDivConfig), (28 bytes).
    Removing stm32f4xx_rcc.o(i.RCC_SYSCLKConfig), (24 bytes).
    Removing stm32f4xx_rcc.o(i.RCC_TIMCLKPresConfig), (12 bytes).
    Removing stm32f4xx_rcc.o(i.RCC_WaitForHSEStartUp), (56 bytes).
    Removing stm32f4xx_sdio.o(.rev16_text), (4 bytes).
    Removing stm32f4xx_sdio.o(.revsh_text), (4 bytes).
    Removing stm32f4xx_sdio.o(.rrx_text), (6 bytes).
    Removing stm32f4xx_sdio.o(i.SDIO_CEATAITCmd), (16 bytes).
    Removing stm32f4xx_sdio.o(i.SDIO_CmdStructInit), (14 bytes).
    Removing stm32f4xx_sdio.o(i.SDIO_CommandCompletionCmd), (12 bytes).
    Removing stm32f4xx_sdio.o(i.SDIO_DataStructInit), (20 bytes).
    Removing stm32f4xx_sdio.o(i.SDIO_GetDataCounter), (12 bytes).
    Removing stm32f4xx_sdio.o(i.SDIO_GetFIFOCount), (12 bytes).
    Removing stm32f4xx_sdio.o(i.SDIO_SendCEATACmd), (12 bytes).
    Removing stm32f4xx_sdio.o(i.SDIO_SendSDIOSuspendCmd), (12 bytes).
    Removing stm32f4xx_sdio.o(i.SDIO_SetSDIOOperation), (12 bytes).
    Removing stm32f4xx_sdio.o(i.SDIO_SetSDIOReadWaitMode), (12 bytes).
    Removing stm32f4xx_sdio.o(i.SDIO_StartSDIOReadWait), (12 bytes).
    Removing stm32f4xx_sdio.o(i.SDIO_StopSDIOReadWait), (12 bytes).
    Removing stm32f4xx_sdio.o(i.SDIO_StructInit), (16 bytes).
    Removing stm32f4xx_sdio.o(i.SDIO_WriteData), (12 bytes).
    Removing stm32f4xx_spi.o(.rev16_text), (4 bytes).
    Removing stm32f4xx_spi.o(.revsh_text), (4 bytes).
    Removing stm32f4xx_spi.o(.rrx_text), (6 bytes).
    Removing stm32f4xx_spi.o(i.I2S_Cmd), (24 bytes).
    Removing stm32f4xx_spi.o(i.I2S_FullDuplexConfig), (80 bytes).
    Removing stm32f4xx_spi.o(i.I2S_Init), (408 bytes).
    Removing stm32f4xx_spi.o(i.I2S_StructInit), (20 bytes).
    Removing stm32f4xx_spi.o(i.SPI_BiDirectionalLineConfig), (28 bytes).
    Removing stm32f4xx_spi.o(i.SPI_CalculateCRC), (24 bytes).
    Removing stm32f4xx_spi.o(i.SPI_DataSizeConfig), (18 bytes).
    Removing stm32f4xx_spi.o(i.SPI_GetCRC), (16 bytes).
    Removing stm32f4xx_spi.o(i.SPI_GetCRCPolynomial), (6 bytes).
    Removing stm32f4xx_spi.o(i.SPI_I2S_ClearFlag), (6 bytes).
    Removing stm32f4xx_spi.o(i.SPI_I2S_ClearITPendingBit), (20 bytes).
    Removing stm32f4xx_spi.o(i.SPI_I2S_DMACmd), (18 bytes).
    Removing stm32f4xx_spi.o(i.SPI_I2S_DeInit), (176 bytes).
    Removing stm32f4xx_spi.o(i.SPI_I2S_GetITStatus), (52 bytes).
    Removing stm32f4xx_spi.o(i.SPI_I2S_ITConfig), (32 bytes).
    Removing stm32f4xx_spi.o(i.SPI_NSSInternalSoftwareConfig), (30 bytes).
    Removing stm32f4xx_spi.o(i.SPI_SSOutputCmd), (24 bytes).
    Removing stm32f4xx_spi.o(i.SPI_StructInit), (24 bytes).
    Removing stm32f4xx_spi.o(i.SPI_TIModeCmd), (24 bytes).
    Removing stm32f4xx_spi.o(i.SPI_TransmitCRC), (10 bytes).
    Removing stm32f4xx_syscfg.o(.rev16_text), (4 bytes).
    Removing stm32f4xx_syscfg.o(.revsh_text), (4 bytes).
    Removing stm32f4xx_syscfg.o(.rrx_text), (6 bytes).
    Removing stm32f4xx_syscfg.o(i.SYSCFG_CompensationCellCmd), (12 bytes).
    Removing stm32f4xx_syscfg.o(i.SYSCFG_DeInit), (22 bytes).
    Removing stm32f4xx_syscfg.o(i.SYSCFG_ETH_MediaInterfaceConfig), (12 bytes).
    Removing stm32f4xx_syscfg.o(i.SYSCFG_EXTILineConfig), (64 bytes).
    Removing stm32f4xx_syscfg.o(i.SYSCFG_GetCompensationCellStatus), (24 bytes).
    Removing stm32f4xx_syscfg.o(i.SYSCFG_MemoryRemapConfig), (12 bytes).
    Removing stm32f4xx_syscfg.o(i.SYSCFG_MemorySwappingBank), (12 bytes).
    Removing stm32f4xx_tim.o(.rev16_text), (4 bytes).
    Removing stm32f4xx_tim.o(.revsh_text), (4 bytes).
    Removing stm32f4xx_tim.o(.rrx_text), (6 bytes).
    Removing stm32f4xx_tim.o(i.TIM_BDTRConfig), (32 bytes).
    Removing stm32f4xx_tim.o(i.TIM_BDTRStructInit), (18 bytes).
    Removing stm32f4xx_tim.o(i.TIM_CCPreloadControl), (24 bytes).
    Removing stm32f4xx_tim.o(i.TIM_CCxCmd), (30 bytes).
    Removing stm32f4xx_tim.o(i.TIM_CCxNCmd), (30 bytes).
    Removing stm32f4xx_tim.o(i.TIM_ClearFlag), (6 bytes).
    Removing stm32f4xx_tim.o(i.TIM_ClearOC1Ref), (18 bytes).
    Removing stm32f4xx_tim.o(i.TIM_ClearOC2Ref), (24 bytes).
    Removing stm32f4xx_tim.o(i.TIM_ClearOC3Ref), (18 bytes).
    Removing stm32f4xx_tim.o(i.TIM_ClearOC4Ref), (24 bytes).
    Removing stm32f4xx_tim.o(i.TIM_CounterModeConfig), (18 bytes).
    Removing stm32f4xx_tim.o(i.TIM_CtrlPWMOutputs), (30 bytes).
    Removing stm32f4xx_tim.o(i.TIM_DMACmd), (18 bytes).
    Removing stm32f4xx_tim.o(i.TIM_DMAConfig), (10 bytes).
    Removing stm32f4xx_tim.o(i.TIM_DeInit), (400 bytes).
    Removing stm32f4xx_tim.o(i.TIM_ETRClockMode1Config), (54 bytes).
    Removing stm32f4xx_tim.o(i.TIM_ETRClockMode2Config), (32 bytes).
    Removing stm32f4xx_tim.o(i.TIM_ETRConfig), (28 bytes).
    Removing stm32f4xx_tim.o(i.TIM_EncoderInterfaceConfig), (66 bytes).
    Removing stm32f4xx_tim.o(i.TIM_ForcedOC1Config), (18 bytes).
    Removing stm32f4xx_tim.o(i.TIM_ForcedOC2Config), (26 bytes).
    Removing stm32f4xx_tim.o(i.TIM_ForcedOC3Config), (18 bytes).
    Removing stm32f4xx_tim.o(i.TIM_ForcedOC4Config), (26 bytes).
    Removing stm32f4xx_tim.o(i.TIM_GenerateEvent), (4 bytes).
    Removing stm32f4xx_tim.o(i.TIM_GetCapture1), (6 bytes).
    Removing stm32f4xx_tim.o(i.TIM_GetCapture2), (6 bytes).
    Removing stm32f4xx_tim.o(i.TIM_GetCapture3), (6 bytes).
    Removing stm32f4xx_tim.o(i.TIM_GetCounter), (6 bytes).
    Removing stm32f4xx_tim.o(i.TIM_GetFlagStatus), (18 bytes).
    Removing stm32f4xx_tim.o(i.TIM_GetPrescaler), (6 bytes).
    Removing stm32f4xx_tim.o(i.TIM_ICStructInit), (18 bytes).
    Removing stm32f4xx_tim.o(i.TIM_ITRxExternalClockConfig), (24 bytes).
    Removing stm32f4xx_tim.o(i.TIM_InternalClockConfig), (12 bytes).
    Removing stm32f4xx_tim.o(i.TIM_OC1FastConfig), (18 bytes).
    Removing stm32f4xx_tim.o(i.TIM_OC1NPolarityConfig), (18 bytes).
    Removing stm32f4xx_tim.o(i.TIM_OC1PolarityConfig), (18 bytes).
    Removing stm32f4xx_tim.o(i.TIM_OC2FastConfig), (26 bytes).
    Removing stm32f4xx_tim.o(i.TIM_OC2NPolarityConfig), (26 bytes).
    Removing stm32f4xx_tim.o(i.TIM_OC2PolarityConfig), (26 bytes).
    Removing stm32f4xx_tim.o(i.TIM_OC2PreloadConfig), (26 bytes).
    Removing stm32f4xx_tim.o(i.TIM_OC3FastConfig), (18 bytes).
    Removing stm32f4xx_tim.o(i.TIM_OC3NPolarityConfig), (26 bytes).
    Removing stm32f4xx_tim.o(i.TIM_OC3PolarityConfig), (26 bytes).
    Removing stm32f4xx_tim.o(i.TIM_OC3PreloadConfig), (18 bytes).
    Removing stm32f4xx_tim.o(i.TIM_OC4FastConfig), (26 bytes).
    Removing stm32f4xx_tim.o(i.TIM_OC4PolarityConfig), (26 bytes).
    Removing stm32f4xx_tim.o(i.TIM_OC4PreloadConfig), (26 bytes).
    Removing stm32f4xx_tim.o(i.TIM_OCStructInit), (20 bytes).
    Removing stm32f4xx_tim.o(i.TIM_PWMIConfig), (124 bytes).
    Removing stm32f4xx_tim.o(i.TIM_PrescalerConfig), (6 bytes).
    Removing stm32f4xx_tim.o(i.TIM_RemapConfig), (6 bytes).
    Removing stm32f4xx_tim.o(i.TIM_SelectCCDMA), (24 bytes).
    Removing stm32f4xx_tim.o(i.TIM_SelectCOM), (24 bytes).
    Removing stm32f4xx_tim.o(i.TIM_SelectHallSensor), (24 bytes).
    Removing stm32f4xx_tim.o(i.TIM_SelectInputTrigger), (18 bytes).
    Removing stm32f4xx_tim.o(i.TIM_SelectMasterSlaveMode), (18 bytes).
    Removing stm32f4xx_tim.o(i.TIM_SelectOCxM), (86 bytes).
    Removing stm32f4xx_tim.o(i.TIM_SelectOnePulseMode), (18 bytes).
    Removing stm32f4xx_tim.o(i.TIM_SelectOutputTrigger), (18 bytes).
    Removing stm32f4xx_tim.o(i.TIM_SelectSlaveMode), (18 bytes).
    Removing stm32f4xx_tim.o(i.TIM_SetAutoreload), (4 bytes).
    Removing stm32f4xx_tim.o(i.TIM_SetClockDivision), (18 bytes).
    Removing stm32f4xx_tim.o(i.TIM_SetCounter), (4 bytes).
    Removing stm32f4xx_tim.o(i.TIM_TIxExternalClockConfig), (62 bytes).
    Removing stm32f4xx_tim.o(i.TIM_TimeBaseStructInit), (18 bytes).
    Removing stm32f4xx_tim.o(i.TIM_UpdateDisableConfig), (24 bytes).
    Removing stm32f4xx_tim.o(i.TIM_UpdateRequestConfig), (24 bytes).
    Removing stm32f4xx_usart.o(.rev16_text), (4 bytes).
    Removing stm32f4xx_usart.o(.revsh_text), (4 bytes).
    Removing stm32f4xx_usart.o(.rrx_text), (6 bytes).
    Removing stm32f4xx_usart.o(i.USART_ClearFlag), (18 bytes).
    Removing stm32f4xx_usart.o(i.USART_ClockInit), (32 bytes).
    Removing stm32f4xx_usart.o(i.USART_ClockStructInit), (12 bytes).
    Removing stm32f4xx_usart.o(i.USART_DeInit), (240 bytes).
    Removing stm32f4xx_usart.o(i.USART_HalfDuplexCmd), (24 bytes).
    Removing stm32f4xx_usart.o(i.USART_IrDACmd), (24 bytes).
    Removing stm32f4xx_usart.o(i.USART_IrDAConfig), (18 bytes).
    Removing stm32f4xx_usart.o(i.USART_LINBreakDetectLengthConfig), (18 bytes).
    Removing stm32f4xx_usart.o(i.USART_LINCmd), (24 bytes).
    Removing stm32f4xx_usart.o(i.USART_OneBitMethodCmd), (24 bytes).
    Removing stm32f4xx_usart.o(i.USART_OverSampling8Cmd), (22 bytes).
    Removing stm32f4xx_usart.o(i.USART_ReceiverWakeUpCmd), (24 bytes).
    Removing stm32f4xx_usart.o(i.USART_SendBreak), (10 bytes).
    Removing stm32f4xx_usart.o(i.USART_SetAddress), (18 bytes).
    Removing stm32f4xx_usart.o(i.USART_SetGuardTime), (16 bytes).
    Removing stm32f4xx_usart.o(i.USART_SetPrescaler), (16 bytes).
    Removing stm32f4xx_usart.o(i.USART_SmartCardCmd), (24 bytes).
    Removing stm32f4xx_usart.o(i.USART_SmartCardNACKCmd), (24 bytes).
    Removing stm32f4xx_usart.o(i.USART_StructInit), (24 bytes).
    Removing stm32f4xx_usart.o(i.USART_WakeUpConfig), (18 bytes).
    Removing stm32f4xx_i2c.o(.rev16_text), (4 bytes).
    Removing stm32f4xx_i2c.o(.revsh_text), (4 bytes).
    Removing stm32f4xx_i2c.o(.rrx_text), (6 bytes).
    Removing stm32f4xx_i2c.o(i.I2C_ARPCmd), (24 bytes).
    Removing stm32f4xx_i2c.o(i.I2C_AcknowledgeConfig), (24 bytes).
    Removing stm32f4xx_i2c.o(i.I2C_AnalogFilterCmd), (24 bytes).
    Removing stm32f4xx_i2c.o(i.I2C_CalculatePEC), (24 bytes).
    Removing stm32f4xx_i2c.o(i.I2C_CheckEvent), (42 bytes).
    Removing stm32f4xx_i2c.o(i.I2C_ClearFlag), (12 bytes).
    Removing stm32f4xx_i2c.o(i.I2C_ClearITPendingBit), (12 bytes).
    Removing stm32f4xx_i2c.o(i.I2C_Cmd), (24 bytes).
    Removing stm32f4xx_i2c.o(i.I2C_DMACmd), (24 bytes).
    Removing stm32f4xx_i2c.o(i.I2C_DMALastTransferCmd), (24 bytes).
    Removing stm32f4xx_i2c.o(i.I2C_DeInit), (96 bytes).
    Removing stm32f4xx_i2c.o(i.I2C_DigitalFilterConfig), (22 bytes).
    Removing stm32f4xx_i2c.o(i.I2C_DualAddressCmd), (24 bytes).
    Removing stm32f4xx_i2c.o(i.I2C_FastModeDutyCycleConfig), (28 bytes).
    Removing stm32f4xx_i2c.o(i.I2C_GeneralCallCmd), (24 bytes).
    Removing stm32f4xx_i2c.o(i.I2C_GenerateSTART), (24 bytes).
    Removing stm32f4xx_i2c.o(i.I2C_GenerateSTOP), (24 bytes).
    Removing stm32f4xx_i2c.o(i.I2C_GetFlagStatus), (58 bytes).
    Removing stm32f4xx_i2c.o(i.I2C_GetITStatus), (38 bytes).
    Removing stm32f4xx_i2c.o(i.I2C_GetLastEvent), (26 bytes).
    Removing stm32f4xx_i2c.o(i.I2C_GetPEC), (8 bytes).
    Removing stm32f4xx_i2c.o(i.I2C_ITConfig), (18 bytes).
    Removing stm32f4xx_i2c.o(i.I2C_Init), (232 bytes).
    Removing stm32f4xx_i2c.o(i.I2C_NACKPositionConfig), (28 bytes).
    Removing stm32f4xx_i2c.o(i.I2C_OwnAddress2Config), (22 bytes).
    Removing stm32f4xx_i2c.o(i.I2C_PECPositionConfig), (28 bytes).
    Removing stm32f4xx_i2c.o(i.I2C_ReadRegister), (22 bytes).
    Removing stm32f4xx_i2c.o(i.I2C_ReceiveData), (8 bytes).
    Removing stm32f4xx_i2c.o(i.I2C_SMBusAlertConfig), (28 bytes).
    Removing stm32f4xx_i2c.o(i.I2C_Send7bitAddress), (16 bytes).
    Removing stm32f4xx_i2c.o(i.I2C_SendData), (4 bytes).
    Removing stm32f4xx_i2c.o(i.I2C_SoftwareResetCmd), (22 bytes).
    Removing stm32f4xx_i2c.o(i.I2C_StretchClockCmd), (24 bytes).
    Removing stm32f4xx_i2c.o(i.I2C_StructInit), (30 bytes).
    Removing stm32f4xx_i2c.o(i.I2C_TransmitPEC), (24 bytes).
    Removing stm32f4xx_can.o(.rev16_text), (4 bytes).
    Removing stm32f4xx_can.o(.revsh_text), (4 bytes).
    Removing stm32f4xx_can.o(.rrx_text), (6 bytes).
    Removing stm32f4xx_can.o(i.CAN_CancelTransmit), (48 bytes).
    Removing stm32f4xx_can.o(i.CAN_ClearFlag), (56 bytes).
    Removing stm32f4xx_can.o(i.CAN_ClearITPendingBit), (168 bytes).
    Removing stm32f4xx_can.o(i.CAN_DBGFreeze), (22 bytes).
    Removing stm32f4xx_can.o(i.CAN_FIFORelease), (22 bytes).
    Removing stm32f4xx_can.o(i.CAN_GetFlagStatus), (120 bytes).
    Removing stm32f4xx_can.o(i.CAN_GetITStatus), (288 bytes).
    Removing stm32f4xx_can.o(i.CAN_GetLSBTransmitErrorCounter), (12 bytes).
    Removing stm32f4xx_can.o(i.CAN_GetLastErrorCode), (12 bytes).
    Removing stm32f4xx_can.o(i.CAN_GetReceiveErrorCounter), (10 bytes).
    Removing stm32f4xx_can.o(i.CAN_ITConfig), (18 bytes).
    Removing stm32f4xx_can.o(i.CAN_MessagePending), (30 bytes).
    Removing stm32f4xx_can.o(i.CAN_OperatingModeRequest), (162 bytes).
    Removing stm32f4xx_can.o(i.CAN_SlaveStartBank), (52 bytes).
    Removing stm32f4xx_can.o(i.CAN_Sleep), (30 bytes).
    Removing stm32f4xx_can.o(i.CAN_StructInit), (32 bytes).
    Removing stm32f4xx_can.o(i.CAN_TTComModeCmd), (118 bytes).
    Removing stm32f4xx_can.o(i.CAN_Transmit), (294 bytes).
    Removing stm32f4xx_can.o(i.CAN_TransmitStatus), (160 bytes).
    Removing stm32f4xx_can.o(i.CAN_WakeUp), (48 bytes).
    Removing stm32f4xx_can.o(i.CheckITStatus), (18 bytes).
    Removing stm32f4xx_crc.o(.rev16_text), (4 bytes).
    Removing stm32f4xx_crc.o(.revsh_text), (4 bytes).
    Removing stm32f4xx_crc.o(.rrx_text), (6 bytes).
    Removing stm32f4xx_crc.o(i.CRC_CalcBlockCRC), (36 bytes).
    Removing stm32f4xx_crc.o(i.CRC_CalcCRC), (16 bytes).
    Removing stm32f4xx_crc.o(i.CRC_GetCRC), (12 bytes).
    Removing stm32f4xx_crc.o(i.CRC_GetIDRegister), (12 bytes).
    Removing stm32f4xx_crc.o(i.CRC_ResetDR), (12 bytes).
    Removing stm32f4xx_crc.o(i.CRC_SetIDRegister), (12 bytes).
    Removing bsp.o(.rev16_text), (4 bytes).
    Removing bsp.o(.revsh_text), (4 bytes).
    Removing bsp.o(.rrx_text), (6 bytes).
    Removing bsp.o(i.CPU_TS32_to_uSec), (60 bytes).
    Removing function.o(.rev16_text), (4 bytes).
    Removing function.o(.revsh_text), (4 bytes).
    Removing function.o(.rrx_text), (6 bytes).
    Removing function.o(i.fun_printf), (66 bytes).
    Removing function.o(i.fun_usartRec), (28 bytes).
    Removing i2ch.o(.rev16_text), (4 bytes).
    Removing i2ch.o(.revsh_text), (4 bytes).
    Removing i2ch.o(.rrx_text), (6 bytes).
    Removing i2ch.o(i.I2CH_dmaReadStart), (156 bytes).
    Removing i2ch.o(i.I2CH_dmaReadWaitFlag), (112 bytes).
    Removing i2ch.o(i.I2CH_readBuffer), (208 bytes).
    Removing i2ch.o(i.I2CH_readByte), (152 bytes).
    Removing i2ch.o(i.I2CH_writeByte), (104 bytes).
    Removing i2ch.o(i.i2cCheckEvent), (52 bytes).
    Removing stm32f4xx_it.o(.rev16_text), (4 bytes).
    Removing stm32f4xx_it.o(.revsh_text), (4 bytes).
    Removing stm32f4xx_it.o(.rrx_text), (6 bytes).
    Removing crctable.o(.rev16_text), (4 bytes).
    Removing crctable.o(.revsh_text), (4 bytes).
    Removing crctable.o(.rrx_text), (6 bytes).
    Removing crctable.o(.constdata), (1024 bytes).
    Removing at25320.o(.rev16_text), (4 bytes).
    Removing at25320.o(.revsh_text), (4 bytes).
    Removing at25320.o(.rrx_text), (6 bytes).
    Removing sdio_tf.o(.rev16_text), (4 bytes).
    Removing sdio_tf.o(.revsh_text), (4 bytes).
    Removing sdio_tf.o(.rrx_text), (6 bytes).
    Removing sdio_tf.o(i.IsCardProgramming), (412 bytes).
    Removing sdio_tf.o(i.SD_Erase), (364 bytes).
    Removing sdio_tf.o(i.SD_GetCardStatus), (160 bytes).
    Removing sdio_tf.o(i.SD_SendSDStatus), (384 bytes).
    Removing sdio_tf.o(i.SD_powerOff), (14 bytes).
    Removing sdio_test.o(.rev16_text), (4 bytes).
    Removing sdio_test.o(.revsh_text), (4 bytes).
    Removing sdio_test.o(.rrx_text), (6 bytes).
    Removing sdio_test.o(i.Buffercmp), (34 bytes).
    Removing sdio_test.o(i.Fill_Buffer), (24 bytes).
    Removing sdio_test.o(i.SD_EraseTest), (108 bytes).
    Removing sdio_test.o(i.SD_MultiBlockTest), (152 bytes).
    Removing sdio_test.o(i.SD_SingleBlockTest), (144 bytes).
    Removing sdio_test.o(i.eBuffercmp), (32 bytes).
    Removing sdio_test.o(.bss), (103424 bytes).
    Removing sdio_test.o(.data), (8 bytes).
    Removing xbm_anti_trigonometric.o(.rev16_text), (4 bytes).
    Removing xbm_anti_trigonometric.o(.revsh_text), (4 bytes).
    Removing xbm_anti_trigonometric.o(.rrx_text), (6 bytes).
    Removing xbm_anti_trigonometric.o(i.xbm_asin), (364 bytes).
    Removing xbm_anti_trigonometric.o(i.xbm_atan), (396 bytes).
    Removing xbm_anti_trigonometric.o(i.xbm_atan2), (112 bytes).
    Removing main.o(.rev16_text), (4 bytes).
    Removing main.o(.revsh_text), (4 bytes).
    Removing main.o(.rrx_text), (6 bytes).
    Removing main.o(i.delay_ms), (24 bytes).
    Removing os_app_hooks.o(i.App_OS_ClrAllHooks), (100 bytes).
    Removing os_app_hooks.o(i.App_OS_IdleTaskHook), (2 bytes).
    Removing os_app_hooks.o(i.App_OS_InitHook), (2 bytes).
    Removing os_app_hooks.o(i.App_OS_SetAllHooks), (140 bytes).
    Removing os_app_hooks.o(i.App_OS_StatTaskHook), (2 bytes).
    Removing os_app_hooks.o(i.App_OS_TaskCreateHook), (2 bytes).
    Removing os_app_hooks.o(i.App_OS_TaskDelHook), (2 bytes).
    Removing os_app_hooks.o(i.App_OS_TaskReturnHook), (2 bytes).
    Removing os_app_hooks.o(i.App_OS_TaskSwHook), (2 bytes).
    Removing os_app_hooks.o(i.App_OS_TimeTickHook), (2 bytes).
    Removing cpu_c.o(i.CPU_BitBandClr), (68 bytes).
    Removing cpu_c.o(i.CPU_BitBandSet), (68 bytes).
    Removing cpu_c.o(i.CPU_IntSrcDis), (376 bytes).
    Removing cpu_c.o(i.CPU_IntSrcEn), (376 bytes).
    Removing cpu_c.o(i.CPU_IntSrcPendClr), (172 bytes).
    Removing cpu_c.o(i.CPU_IntSrcPrioGet), (520 bytes).
    Removing cpu_c.o(i.CPU_IntSrcPrioSet), (564 bytes).
    Removing cpu_core.o(i.CPU_CntLeadZeros08), (18 bytes).
    Removing cpu_core.o(i.CPU_CntLeadZeros16), (18 bytes).
    Removing cpu_core.o(i.CPU_CntLeadZeros32), (18 bytes).
    Removing cpu_core.o(i.CPU_CntLeadZeros64), (192 bytes).
    Removing cpu_core.o(i.CPU_CntTrailZeros08), (22 bytes).
    Removing cpu_core.o(i.CPU_CntTrailZeros16), (22 bytes).
    Removing cpu_core.o(i.CPU_CntTrailZeros32), (22 bytes).
    Removing cpu_core.o(i.CPU_CntTrailZeros64), (62 bytes).
    Removing cpu_core.o(i.CPU_NameGet), (84 bytes).
    Removing cpu_core.o(i.CPU_NameSet), (108 bytes).
    Removing cpu_core.o(i.CPU_PopCnt32), (56 bytes).
    Removing cpu_core.o(i.CPU_SW_Exception), (4 bytes).
    Removing cpu_core.o(i.CPU_TS_Get32), (12 bytes).
    Removing cpu_core.o(i.CPU_TS_TmrFreqGet), (36 bytes).
    Removing cpu_core.o(i.CPU_TS_Update), (2 bytes).
    Removing cpu_core.o(.constdata), (260 bytes).
    Removing lib_ascii.o(i.ASCII_Cmp), (38 bytes).
    Removing lib_ascii.o(i.ASCII_IsAlpha), (48 bytes).
    Removing lib_ascii.o(i.ASCII_IsAlphaNum), (76 bytes).
    Removing lib_ascii.o(i.ASCII_IsBlank), (20 bytes).
    Removing lib_ascii.o(i.ASCII_IsCtrl), (26 bytes).
    Removing lib_ascii.o(i.ASCII_IsDig), (20 bytes).
    Removing lib_ascii.o(i.ASCII_IsDigHex), (36 bytes).
    Removing lib_ascii.o(i.ASCII_IsDigOct), (20 bytes).
    Removing lib_ascii.o(i.ASCII_IsGraph), (20 bytes).
    Removing lib_ascii.o(i.ASCII_IsLower), (20 bytes).
    Removing lib_ascii.o(i.ASCII_IsPrint), (20 bytes).
    Removing lib_ascii.o(i.ASCII_IsPunct), (134 bytes).
    Removing lib_ascii.o(i.ASCII_IsSpace), (36 bytes).
    Removing lib_ascii.o(i.ASCII_IsUpper), (20 bytes).
    Removing lib_ascii.o(i.ASCII_ToLower), (32 bytes).
    Removing lib_ascii.o(i.ASCII_ToUpper), (32 bytes).
    Removing lib_math.o(i.Math_Init), (10 bytes).
    Removing lib_math.o(i.Math_Rand), (64 bytes).
    Removing lib_math.o(i.Math_RandSeed), (24 bytes).
    Removing lib_math.o(i.Math_RandSetSeed), (52 bytes).
    Removing lib_math.o(.data), (4 bytes).
    Removing lib_mem.o(i.Mem_Cmp), (192 bytes).
    Removing lib_mem.o(i.Mem_DynPoolBlkFree), (142 bytes).
    Removing lib_mem.o(i.Mem_DynPoolBlkGet), (210 bytes).
    Removing lib_mem.o(i.Mem_DynPoolBlkNbrAvailGet), (78 bytes).
    Removing lib_mem.o(i.Mem_DynPoolCreate), (64 bytes).
    Removing lib_mem.o(i.Mem_DynPoolCreateHW), (64 bytes).
    Removing lib_mem.o(i.Mem_DynPoolCreateInternal), (210 bytes).
    Removing lib_mem.o(i.Mem_HeapAlloc), (60 bytes).
    Removing lib_mem.o(i.Mem_HeapGetSizeRem), (44 bytes).
    Removing lib_mem.o(i.Mem_Init), (72 bytes).
    Removing lib_mem.o(i.Mem_Move), (186 bytes).
    Removing lib_mem.o(i.Mem_PoolBlkFree), (108 bytes).
    Removing lib_mem.o(i.Mem_PoolBlkGet), (100 bytes).
    Removing lib_mem.o(i.Mem_PoolBlkGetNbrAvail), (60 bytes).
    Removing lib_mem.o(i.Mem_PoolClr), (22 bytes).
    Removing lib_mem.o(i.Mem_PoolCreate), (440 bytes).
    Removing lib_mem.o(i.Mem_SegAlloc), (52 bytes).
    Removing lib_mem.o(i.Mem_SegAllocExt), (52 bytes).
    Removing lib_mem.o(i.Mem_SegAllocExtCritical), (164 bytes).
    Removing lib_mem.o(i.Mem_SegAllocHW), (52 bytes).
    Removing lib_mem.o(i.Mem_SegAllocInternal), (112 bytes).
    Removing lib_mem.o(i.Mem_SegClr), (56 bytes).
    Removing lib_mem.o(i.Mem_SegCreate), (82 bytes).
    Removing lib_mem.o(i.Mem_SegCreateCritical), (32 bytes).
    Removing lib_mem.o(i.Mem_SegOverlapChkCritical), (88 bytes).
    Removing lib_mem.o(i.Mem_SegRemSizeGet), (132 bytes).
    Removing lib_mem.o(.bss), (1044 bytes).
    Removing lib_mem.o(.data), (4 bytes).
    Removing lib_str.o(i.Str_Cat), (24 bytes).
    Removing lib_str.o(i.Str_Cat_N), (90 bytes).
    Removing lib_str.o(i.Str_Char), (24 bytes).
    Removing lib_str.o(i.Str_Char_Last), (24 bytes).
    Removing lib_str.o(i.Str_Char_Last_N), (76 bytes).
    Removing lib_str.o(i.Str_Char_N), (74 bytes).
    Removing lib_str.o(i.Str_Char_Replace), (28 bytes).
    Removing lib_str.o(i.Str_Char_Replace_N), (52 bytes).
    Removing lib_str.o(i.Str_Cmp), (24 bytes).
    Removing lib_str.o(i.Str_CmpIgnoreCase), (24 bytes).
    Removing lib_str.o(i.Str_CmpIgnoreCase_N), (264 bytes).
    Removing lib_str.o(i.Str_Cmp_N), (156 bytes).
    Removing lib_str.o(i.Str_Copy), (24 bytes).
    Removing lib_str.o(i.Str_Copy_N), (70 bytes).
    Removing lib_str.o(i.Str_FmtNbr_Int32), (474 bytes).
    Removing lib_str.o(i.Str_FmtNbr_Int32S), (62 bytes).
    Removing lib_str.o(i.Str_FmtNbr_Int32U), (46 bytes).
    Removing lib_str.o(i.Str_Len), (20 bytes).
    Removing lib_str.o(i.Str_Len_N), (28 bytes).
    Removing lib_str.o(i.Str_ParseNbr_Int32), (452 bytes).
    Removing lib_str.o(i.Str_ParseNbr_Int32S), (74 bytes).
    Removing lib_str.o(i.Str_ParseNbr_Int32U), (30 bytes).
    Removing lib_str.o(i.Str_Str), (24 bytes).
    Removing lib_str.o(i.Str_Str_N), (182 bytes).
    Removing lib_str.o(.constdata), (148 bytes).
    Removing lib_mem_a.o(.text), (544 bytes).
    Removing os_core.o(i.OSVersion), (12 bytes).
    Removing os_core.o(i.OS_PendAbort), (188 bytes).
    Removing os_core.o(i.OS_PendAbort1), (38 bytes).
    Removing os_core.o(i.OS_PendListInsertHead), (32 bytes).
    Removing os_core.o(i.OS_PendObjDel), (184 bytes).
    Removing os_core.o(i.OS_PendObjDel1), (38 bytes).
    Removing os_core.o(i.OS_RdyListMoveHeadToTail), (68 bytes).
    Removing os_cpu_c.o(i.OSTaskDelHook), (24 bytes).
    Removing os_flag.o(i.OSFlagCreate), (104 bytes).
    Removing os_flag.o(i.OSFlagPend), (776 bytes).
    Removing os_flag.o(i.OSFlagPendGetFlagsRdy), (64 bytes).
    Removing os_flag.o(i.OSFlagPost), (64 bytes).
    Removing os_flag.o(i.OS_FlagBlock), (60 bytes).
    Removing os_flag.o(i.OS_FlagClr), (40 bytes).
    Removing os_flag.o(i.OS_FlagDbgListAdd), (48 bytes).
    Removing os_flag.o(i.OS_FlagDbgListRemove), (48 bytes).
    Removing os_flag.o(i.OS_FlagPost), (372 bytes).
    Removing os_flag.o(i.OS_FlagTaskRdy), (100 bytes).
    Removing os_msg.o(i.OS_MsgQFreeAll), (68 bytes).
    Removing os_mutex.o(i.OS_MutexClr), (48 bytes).
    Removing os_mutex.o(i.OS_MutexDbgListRemove), (48 bytes).
    Removing os_mutex.o(i.OS_MutexGrpPostAll), (96 bytes).
    Removing os_pend_multi.o(i.OSPendMulti), (328 bytes).
    Removing os_pend_multi.o(i.OS_PendMultiGetRdy), (148 bytes).
    Removing os_pend_multi.o(i.OS_PendMultiValidate), (76 bytes).
    Removing os_pend_multi.o(i.OS_PendMultiWait), (140 bytes).
    Removing os_q.o(i.OSQCreate), (108 bytes).
    Removing os_q.o(i.OSQPend), (416 bytes).
    Removing os_q.o(i.OSQPendAbort), (180 bytes).
    Removing os_q.o(i.OSQPost), (64 bytes).
    Removing os_q.o(i.OS_QClr), (48 bytes).
    Removing os_q.o(i.OS_QDbgListAdd), (48 bytes).
    Removing os_q.o(i.OS_QDbgListRemove), (48 bytes).
    Removing os_q.o(i.OS_QPost), (202 bytes).
    Removing os_sem.o(i.OSSemDel), (276 bytes).
    Removing os_sem.o(i.OSSemPendAbort), (180 bytes).
    Removing os_sem.o(i.OSSemSet), (108 bytes).
    Removing os_sem.o(i.OS_SemClr), (40 bytes).
    Removing os_sem.o(i.OS_SemDbgListRemove), (48 bytes).
    Removing os_task.o(i.OSTaskQFlush), (112 bytes).
    Removing os_task.o(i.OSTaskRegGet), (80 bytes).
    Removing os_task.o(i.OSTaskRegGetID), (100 bytes).
    Removing os_task.o(i.OSTaskRegSet), (80 bytes).
    Removing os_task.o(i.OSTaskSemPendAbort), (200 bytes).
    Removing os_task.o(i.OSTaskSemSet), (76 bytes).
    Removing os_task.o(i.OS_TaskDbgListRemove), (68 bytes).
    Removing os_time.o(i.OSTimeGet), (60 bytes).
    Removing os_time.o(i.OSTimeSet), (60 bytes).
    Removing os_tmr.o(i.OSTmrCreate), (120 bytes).
    Removing os_tmr.o(i.OSTmrRemainGet), (124 bytes).
    Removing os_tmr.o(i.OSTmrSet), (68 bytes).
    Removing os_tmr.o(i.OSTmrStart), (192 bytes).
    Removing os_tmr.o(i.OSTmrStateGet), (84 bytes).
    Removing os_tmr.o(i.OSTmrStop), (196 bytes).
    Removing os_tmr.o(i.OS_TmrClr), (48 bytes).
    Removing os_tmr.o(i.OS_TmrDbgListAdd), (40 bytes).
    Removing os_tmr.o(i.OS_TmrDbgListRemove), (48 bytes).
    Removing app.o(.rev16_text), (4 bytes).
    Removing app.o(.revsh_text), (4 bytes).
    Removing app.o(.rrx_text), (6 bytes).
    Removing apppresent.o(.rev16_text), (4 bytes).
    Removing apppresent.o(.revsh_text), (4 bytes).
    Removing apppresent.o(.rrx_text), (6 bytes).
    Removing appcontroller.o(.rev16_text), (4 bytes).
    Removing appcontroller.o(.revsh_text), (4 bytes).
    Removing appcontroller.o(.rrx_text), (6 bytes).
    Removing appcontroller.o(i.PosSlowFun), (164 bytes).
    Removing appcontroller.o(i.RoughSigmoid), (164 bytes).
    Removing appcontroller.o(.data), (8 bytes).
    Removing appcommunicate.o(.rev16_text), (4 bytes).
    Removing appcommunicate.o(.revsh_text), (4 bytes).
    Removing appcommunicate.o(.rrx_text), (6 bytes).
    Removing appcommunicate.o(i.displayMonitor), (84 bytes).
    Removing appcommunicate.o(i.usartReadStr), (40 bytes).
    Removing apppath.o(.rev16_text), (4 bytes).
    Removing apppath.o(.revsh_text), (4 bytes).
    Removing apppath.o(.rrx_text), (6 bytes).
    Removing apppath.o(i.Path_getNextPosRef), (188 bytes).
    Removing apppath.o(i.Path_getNextPosRefXYP), (644 bytes).
    Removing apppath.o(i.calculateDis), (90 bytes).
    Removing apppath.o(.bss), (20 bytes).
    Removing apppath.o(.data), (108 bytes).
    Removing diskio.o(.rev16_text), (4 bytes).
    Removing diskio.o(.revsh_text), (4 bytes).
    Removing diskio.o(.rrx_text), (6 bytes).
    Removing ff.o(.rev16_text), (4 bytes).
    Removing ff.o(.revsh_text), (4 bytes).
    Removing ff.o(.rrx_text), (6 bytes).
    Removing ff.o(i.dir_read), (116 bytes).
    Removing ff.o(i.dir_remove), (32 bytes).
    Removing ff.o(i.f_closedir), (24 bytes).
    Removing ff.o(i.f_getfree), (252 bytes).
    Removing ff.o(i.f_gets), (86 bytes).
    Removing ff.o(i.f_mkdir), (350 bytes).
    Removing ff.o(i.f_opendir), (112 bytes).
    Removing ff.o(i.f_printf), (596 bytes).
    Removing ff.o(i.f_putc), (34 bytes).
    Removing ff.o(i.f_puts), (44 bytes).
    Removing ff.o(i.f_readdir), (78 bytes).
    Removing ff.o(i.f_rename), (250 bytes).
    Removing ff.o(i.f_truncate), (178 bytes).
    Removing ff.o(i.f_unlink), (170 bytes).
    Removing ff.o(i.putc_bfd), (78 bytes).
    Removing ff.o(i.putc_flush), (44 bytes).
    Removing ff.o(i.putc_init), (10 bytes).
    Removing ff_driver.o(.rev16_text), (4 bytes).
    Removing ff_driver.o(.revsh_text), (4 bytes).
    Removing ff_driver.o(.rrx_text), (6 bytes).
    Removing ff_driver.o(i.MMC_disk_initialize), (6 bytes).
    Removing ff_driver.o(i.MMC_disk_ioctl), (6 bytes).
    Removing ff_driver.o(i.MMC_disk_read), (8 bytes).
    Removing ff_driver.o(i.MMC_disk_status), (6 bytes).
    Removing ff_driver.o(i.MMC_disk_write), (8 bytes).
    Removing ff_driver.o(i.RAM_disk_initialize), (6 bytes).
    Removing ff_driver.o(i.RAM_disk_ioctl), (6 bytes).
    Removing ff_driver.o(i.RAM_disk_read), (8 bytes).
    Removing ff_driver.o(i.RAM_disk_status), (6 bytes).
    Removing ff_driver.o(i.RAM_disk_write), (8 bytes).
    Removing ff_driver.o(i.USB_disk_initialize), (6 bytes).
    Removing ff_driver.o(i.USB_disk_ioctl), (6 bytes).
    Removing ff_driver.o(i.USB_disk_read), (8 bytes).
    Removing ff_driver.o(i.USB_disk_status), (6 bytes).
    Removing ff_driver.o(i.USB_disk_write), (8 bytes).

643 unused section(s) (total 141550 bytes) removed from the image.

==============================================================================

Image Symbol Table

    Local Symbols

    Symbol Name                              Value     Ov Type        Size  Object(Section)

    ../clib/../cmprslib/zerorunl2.c          0x00000000   Number         0  __dczerorl2.o ABSOLUTE
    ../clib/microlib/division.c              0x00000000   Number         0  uidiv.o ABSOLUTE
    ../clib/microlib/division.c              0x00000000   Number         0  uldiv.o ABSOLUTE
    ../clib/microlib/init/entry.s            0x00000000   Number         0  entry11b.o ABSOLUTE
    ../clib/microlib/init/entry.s            0x00000000   Number         0  entry2.o ABSOLUTE
    ../clib/microlib/init/entry.s            0x00000000   Number         0  entry5.o ABSOLUTE
    ../clib/microlib/init/entry.s            0x00000000   Number         0  entry7a.o ABSOLUTE
    ../clib/microlib/init/entry.s            0x00000000   Number         0  entry.o ABSOLUTE
    ../clib/microlib/init/entry.s            0x00000000   Number         0  entry7b.o ABSOLUTE
    ../clib/microlib/init/entry.s            0x00000000   Number         0  entry8a.o ABSOLUTE
    ../clib/microlib/init/entry.s            0x00000000   Number         0  entry8b.o ABSOLUTE
    ../clib/microlib/init/entry.s            0x00000000   Number         0  entry9a.o ABSOLUTE
    ../clib/microlib/init/entry.s            0x00000000   Number         0  entry11a.o ABSOLUTE
    ../clib/microlib/init/entry.s            0x00000000   Number         0  entry9b.o ABSOLUTE
    ../clib/microlib/init/entry.s            0x00000000   Number         0  entry10a.o ABSOLUTE
    ../clib/microlib/init/entry.s            0x00000000   Number         0  entry10b.o ABSOLUTE
    ../clib/microlib/longlong.c              0x00000000   Number         0  llshl.o ABSOLUTE
    ../clib/microlib/longlong.c              0x00000000   Number         0  llushr.o ABSOLUTE
    ../clib/microlib/longlong.c              0x00000000   Number         0  llsshr.o ABSOLUTE
    ../clib/microlib/printf/printf.c         0x00000000   Number         0  printf8.o ABSOLUTE
    ../clib/microlib/printf/printf.c         0x00000000   Number         0  printf7.o ABSOLUTE
    ../clib/microlib/printf/printf.c         0x00000000   Number         0  printf6.o ABSOLUTE
    ../clib/microlib/printf/printf.c         0x00000000   Number         0  printf3.o ABSOLUTE
    ../clib/microlib/printf/printf.c         0x00000000   Number         0  printf5.o ABSOLUTE
    ../clib/microlib/printf/printf.c         0x00000000   Number         0  printfb.o ABSOLUTE
    ../clib/microlib/printf/printf.c         0x00000000   Number         0  printf4.o ABSOLUTE
    ../clib/microlib/printf/printf.c         0x00000000   Number         0  printf2.o ABSOLUTE
    ../clib/microlib/printf/printf.c         0x00000000   Number         0  printf1.o ABSOLUTE
    ../clib/microlib/printf/printf.c         0x00000000   Number         0  printf0.o ABSOLUTE
    ../clib/microlib/printf/printf.c         0x00000000   Number         0  printfa.o ABSOLUTE
    ../clib/microlib/printf/stubs.s          0x00000000   Number         0  stubs.o ABSOLUTE
    ../clib/microlib/stdio/streams.c         0x00000000   Number         0  stdout.o ABSOLUTE
    ../clib/microlib/stubs.s                 0x00000000   Number         0  iusefp.o ABSOLUTE
    ../fplib/microlib/f2d.c                  0x00000000   Number         0  f2d.o ABSOLUTE
    ../fplib/microlib/fpadd.c                0x00000000   Number         0  dadd.o ABSOLUTE
    ../fplib/microlib/fpdiv.c                0x00000000   Number         0  ddiv.o ABSOLUTE
    ../fplib/microlib/fpepilogue.c           0x00000000   Number         0  depilogue.o ABSOLUTE
    ../fplib/microlib/fpfix.c                0x00000000   Number         0  dfixul.o ABSOLUTE
    ../fplib/microlib/fpmul.c                0x00000000   Number         0  dmul.o ABSOLUTE
    ..\App\app.c                             0x00000000   Number         0  app.o ABSOLUTE
    ..\App\appCommunicate.c                  0x00000000   Number         0  appcommunicate.o ABSOLUTE
    ..\App\appController.c                   0x00000000   Number         0  appcontroller.o ABSOLUTE
    ..\App\appPath.c                         0x00000000   Number         0  apppath.o ABSOLUTE
    ..\App\appPresent.c                      0x00000000   Number         0  apppresent.o ABSOLUTE
    ..\CMSIS\startup_stm32f40_41xxx.s        0x00000000   Number         0  startup_stm32f40_41xxx.o ABSOLUTE
    ..\CMSIS\system_stm32f4xx.c              0x00000000   Number         0  system_stm32f4xx.o ABSOLUTE
    ..\Device\Sdio_test.c                    0x00000000   Number         0  sdio_test.o ABSOLUTE
    ..\Device\Sdio_tf.c                      0x00000000   Number         0  sdio_tf.o ABSOLUTE
    ..\Device\at25320.c                      0x00000000   Number         0  at25320.o ABSOLUTE
    ..\Driver\Bsp.c                          0x00000000   Number         0  bsp.o ABSOLUTE
    ..\Driver\I2CH.c                         0x00000000   Number         0  i2ch.o ABSOLUTE
    ..\Driver\crcTable.c                     0x00000000   Number         0  crctable.o ABSOLUTE
    ..\Driver\function.c                     0x00000000   Number         0  function.o ABSOLUTE
    ..\Driver\stm32f4xx_it.c                 0x00000000   Number         0  stm32f4xx_it.o ABSOLUTE
    ..\Dsp\xbm_anti_trigonometric.c          0x00000000   Number         0  xbm_anti_trigonometric.o ABSOLUTE
    ..\Library\src\misc.c                    0x00000000   Number         0  misc.o ABSOLUTE
    ..\Library\src\stm32f4xx_adc.c           0x00000000   Number         0  stm32f4xx_adc.o ABSOLUTE
    ..\Library\src\stm32f4xx_can.c           0x00000000   Number         0  stm32f4xx_can.o ABSOLUTE
    ..\Library\src\stm32f4xx_crc.c           0x00000000   Number         0  stm32f4xx_crc.o ABSOLUTE
    ..\Library\src\stm32f4xx_dma.c           0x00000000   Number         0  stm32f4xx_dma.o ABSOLUTE
    ..\Library\src\stm32f4xx_exti.c          0x00000000   Number         0  stm32f4xx_exti.o ABSOLUTE
    ..\Library\src\stm32f4xx_gpio.c          0x00000000   Number         0  stm32f4xx_gpio.o ABSOLUTE
    ..\Library\src\stm32f4xx_i2c.c           0x00000000   Number         0  stm32f4xx_i2c.o ABSOLUTE
    ..\Library\src\stm32f4xx_rcc.c           0x00000000   Number         0  stm32f4xx_rcc.o ABSOLUTE
    ..\Library\src\stm32f4xx_sdio.c          0x00000000   Number         0  stm32f4xx_sdio.o ABSOLUTE
    ..\Library\src\stm32f4xx_spi.c           0x00000000   Number         0  stm32f4xx_spi.o ABSOLUTE
    ..\Library\src\stm32f4xx_syscfg.c        0x00000000   Number         0  stm32f4xx_syscfg.o ABSOLUTE
    ..\Library\src\stm32f4xx_tim.c           0x00000000   Number         0  stm32f4xx_tim.o ABSOLUTE
    ..\Library\src\stm32f4xx_usart.c         0x00000000   Number         0  stm32f4xx_usart.o ABSOLUTE
    ..\User\main.c                           0x00000000   Number         0  main.o ABSOLUTE
    ..\\App\\app.c                           0x00000000   Number         0  app.o ABSOLUTE
    ..\\App\\appCommunicate.c                0x00000000   Number         0  appcommunicate.o ABSOLUTE
    ..\\App\\appController.c                 0x00000000   Number         0  appcontroller.o ABSOLUTE
    ..\\App\\appPath.c                       0x00000000   Number         0  apppath.o ABSOLUTE
    ..\\App\\appPresent.c                    0x00000000   Number         0  apppresent.o ABSOLUTE
    ..\\CMSIS\\system_stm32f4xx.c            0x00000000   Number         0  system_stm32f4xx.o ABSOLUTE
    ..\\Device\\Sdio_test.c                  0x00000000   Number         0  sdio_test.o ABSOLUTE
    ..\\Device\\Sdio_tf.c                    0x00000000   Number         0  sdio_tf.o ABSOLUTE
    ..\\Device\\at25320.c                    0x00000000   Number         0  at25320.o ABSOLUTE
    ..\\Driver\\Bsp.c                        0x00000000   Number         0  bsp.o ABSOLUTE
    ..\\Driver\\I2CH.c                       0x00000000   Number         0  i2ch.o ABSOLUTE
    ..\\Driver\\crcTable.c                   0x00000000   Number         0  crctable.o ABSOLUTE
    ..\\Driver\\function.c                   0x00000000   Number         0  function.o ABSOLUTE
    ..\\Driver\\stm32f4xx_it.c               0x00000000   Number         0  stm32f4xx_it.o ABSOLUTE
    ..\\Dsp\\xbm_anti_trigonometric.c        0x00000000   Number         0  xbm_anti_trigonometric.o ABSOLUTE
    ..\\Library\\src\\misc.c                 0x00000000   Number         0  misc.o ABSOLUTE
    ..\\Library\\src\\stm32f4xx_adc.c        0x00000000   Number         0  stm32f4xx_adc.o ABSOLUTE
    ..\\Library\\src\\stm32f4xx_can.c        0x00000000   Number         0  stm32f4xx_can.o ABSOLUTE
    ..\\Library\\src\\stm32f4xx_crc.c        0x00000000   Number         0  stm32f4xx_crc.o ABSOLUTE
    ..\\Library\\src\\stm32f4xx_dma.c        0x00000000   Number         0  stm32f4xx_dma.o ABSOLUTE
    ..\\Library\\src\\stm32f4xx_exti.c       0x00000000   Number         0  stm32f4xx_exti.o ABSOLUTE
    ..\\Library\\src\\stm32f4xx_gpio.c       0x00000000   Number         0  stm32f4xx_gpio.o ABSOLUTE
    ..\\Library\\src\\stm32f4xx_i2c.c        0x00000000   Number         0  stm32f4xx_i2c.o ABSOLUTE
    ..\\Library\\src\\stm32f4xx_rcc.c        0x00000000   Number         0  stm32f4xx_rcc.o ABSOLUTE
    ..\\Library\\src\\stm32f4xx_sdio.c       0x00000000   Number         0  stm32f4xx_sdio.o ABSOLUTE
    ..\\Library\\src\\stm32f4xx_spi.c        0x00000000   Number         0  stm32f4xx_spi.o ABSOLUTE
    ..\\Library\\src\\stm32f4xx_syscfg.c     0x00000000   Number         0  stm32f4xx_syscfg.o ABSOLUTE
    ..\\Library\\src\\stm32f4xx_tim.c        0x00000000   Number         0  stm32f4xx_tim.o ABSOLUTE
    ..\\Library\\src\\stm32f4xx_usart.c      0x00000000   Number         0  stm32f4xx_usart.o ABSOLUTE
    ..\\User\\main.c                         0x00000000   Number         0  main.o ABSOLUTE
    ..\\fatfs\\diskio.c                      0x00000000   Number         0  diskio.o ABSOLUTE
    ..\\fatfs\\ff.c                          0x00000000   Number         0  ff.o ABSOLUTE
    ..\\fatfs\\ff_driver.c                   0x00000000   Number         0  ff_driver.o ABSOLUTE
    ..\fatfs\diskio.c                        0x00000000   Number         0  diskio.o ABSOLUTE
    ..\fatfs\ff.c                            0x00000000   Number         0  ff.o ABSOLUTE
    ..\fatfs\ff_driver.c                     0x00000000   Number         0  ff_driver.o ABSOLUTE
    ..\uCOS\uC-CPU\cpu_a.asm                 0x00000000   Number         0  cpu_a.o ABSOLUTE
    ..\uCOS\uC-CPU\cpu_c.c                   0x00000000   Number         0  cpu_c.o ABSOLUTE
    ..\uCOS\uC-CPU\cpu_core.c                0x00000000   Number         0  cpu_core.o ABSOLUTE
    ..\uCOS\uC-Cfg\os_app_hooks.c            0x00000000   Number         0  os_app_hooks.o ABSOLUTE
    ..\uCOS\uC-LIB\lib_ascii.c               0x00000000   Number         0  lib_ascii.o ABSOLUTE
    ..\uCOS\uC-LIB\lib_math.c                0x00000000   Number         0  lib_math.o ABSOLUTE
    ..\uCOS\uC-LIB\lib_mem.c                 0x00000000   Number         0  lib_mem.o ABSOLUTE
    ..\uCOS\uC-LIB\lib_mem_a.asm             0x00000000   Number         0  lib_mem_a.o ABSOLUTE
    ..\uCOS\uC-LIB\lib_str.c                 0x00000000   Number         0  lib_str.o ABSOLUTE
    ..\uCOS\uCOS-III\os_cfg_app.c            0x00000000   Number         0  os_cfg_app.o ABSOLUTE
    ..\uCOS\uCOS-III\os_core.c               0x00000000   Number         0  os_core.o ABSOLUTE
    ..\uCOS\uCOS-III\os_cpu_a.asm            0x00000000   Number         0  os_cpu_a.o ABSOLUTE
    ..\uCOS\uCOS-III\os_cpu_c.c              0x00000000   Number         0  os_cpu_c.o ABSOLUTE
    ..\uCOS\uCOS-III\os_dbg.c                0x00000000   Number         0  os_dbg.o ABSOLUTE
    ..\uCOS\uCOS-III\os_flag.c               0x00000000   Number         0  os_flag.o ABSOLUTE
    ..\uCOS\uCOS-III\os_int.c                0x00000000   Number         0  os_int.o ABSOLUTE
    ..\uCOS\uCOS-III\os_mem.c                0x00000000   Number         0  os_mem.o ABSOLUTE
    ..\uCOS\uCOS-III\os_msg.c                0x00000000   Number         0  os_msg.o ABSOLUTE
    ..\uCOS\uCOS-III\os_mutex.c              0x00000000   Number         0  os_mutex.o ABSOLUTE
    ..\uCOS\uCOS-III\os_pend_multi.c         0x00000000   Number         0  os_pend_multi.o ABSOLUTE
    ..\uCOS\uCOS-III\os_prio.c               0x00000000   Number         0  os_prio.o ABSOLUTE
    ..\uCOS\uCOS-III\os_q.c                  0x00000000   Number         0  os_q.o ABSOLUTE
    ..\uCOS\uCOS-III\os_sem.c                0x00000000   Number         0  os_sem.o ABSOLUTE
    ..\uCOS\uCOS-III\os_stat.c               0x00000000   Number         0  os_stat.o ABSOLUTE
    ..\uCOS\uCOS-III\os_task.c               0x00000000   Number         0  os_task.o ABSOLUTE
    ..\uCOS\uCOS-III\os_tick.c               0x00000000   Number         0  os_tick.o ABSOLUTE
    ..\uCOS\uCOS-III\os_time.c               0x00000000   Number         0  os_time.o ABSOLUTE
    ..\uCOS\uCOS-III\os_tmr.c                0x00000000   Number         0  os_tmr.o ABSOLUTE
    ..\uCOS\uCOS-III\os_var.c                0x00000000   Number         0  os_var.o ABSOLUTE
    cdrcmple.s                               0x00000000   Number         0  cdrcmple.o ABSOLUTE
    dc.s                                     0x00000000   Number         0  dc.o ABSOLUTE
    handlers.s                               0x00000000   Number         0  handlers.o ABSOLUTE
    init.s                                   0x00000000   Number         0  init.o ABSOLUTE
    RESET                                    0x08000000   Section      392  startup_stm32f40_41xxx.o(RESET)
    .ARM.Collect$$$$00000000                 0x08000188   Section        0  entry.o(.ARM.Collect$$$$00000000)
    .ARM.Collect$$$$00000001                 0x08000188   Section        4  entry2.o(.ARM.Collect$$$$00000001)
    .ARM.Collect$$$$00000004                 0x0800018c   Section        4  entry5.o(.ARM.Collect$$$$00000004)
    .ARM.Collect$$$$00000008                 0x08000190   Section        0  entry7b.o(.ARM.Collect$$$$00000008)
    .ARM.Collect$$$$0000000A                 0x08000190   Section        0  entry8b.o(.ARM.Collect$$$$0000000A)
    .ARM.Collect$$$$0000000B                 0x08000190   Section        8  entry9a.o(.ARM.Collect$$$$0000000B)
    .ARM.Collect$$$$0000000D                 0x08000198   Section        0  entry10a.o(.ARM.Collect$$$$0000000D)
    .ARM.Collect$$$$0000000F                 0x08000198   Section        0  entry11a.o(.ARM.Collect$$$$0000000F)
    .ARM.Collect$$$$00002712                 0x08000198   Section        4  entry2.o(.ARM.Collect$$$$00002712)
    __lit__00000000                          0x08000198   Data           4  entry2.o(.ARM.Collect$$$$00002712)
    .text                                    0x0800019c   Section       36  startup_stm32f40_41xxx.o(.text)
    $v0                                      0x0800019c   Number         0  startup_stm32f40_41xxx.o(.text)
    .text                                    0x080001c0   Section       52  cpu_a.o(.text)
    $v0                                      0x080001c0   Number         0  cpu_a.o(.text)
    .text                                    0x080001f4   Section        0  uldiv.o(.text)
    .text                                    0x08000256   Section        0  f2d.o(.text)
    .text                                    0x0800027c   Section        0  uidiv.o(.text)
    .text                                    0x080002a8   Section        0  llshl.o(.text)
    .text                                    0x080002c6   Section        0  llushr.o(.text)
    .text                                    0x080002e6   Section        0  iusefp.o(.text)
    .text                                    0x080002e6   Section        0  dadd.o(.text)
    .text                                    0x08000434   Section        0  dmul.o(.text)
    .text                                    0x08000518   Section        0  ddiv.o(.text)
    .text                                    0x080005f6   Section        0  dfixul.o(.text)
    .text                                    0x08000628   Section       48  cdrcmple.o(.text)
    .text                                    0x08000658   Section       36  init.o(.text)
    .text                                    0x0800067c   Section        0  llsshr.o(.text)
    .text                                    0x080006a0   Section        0  depilogue.o(.text)
    .text                                    0x0800075a   Section        0  __dczerorl2.o(.text)
    CODE                                     0x080007b0   Section      212  os_cpu_a.o(CODE)
    $v0                                      0x080007b0   Number         0  os_cpu_a.o(CODE)
    i.BSP_CPU_ClkFreq                        0x08000884   Section        0  bsp.o(i.BSP_CPU_ClkFreq)
    i.BSP_GPIOinit                           0x08000894   Section        0  bsp.o(i.BSP_GPIOinit)
    BSP_GPIOinit                             0x08000895   Thumb Code   592  bsp.o(i.BSP_GPIOinit)
    i.BSP_dmaInit                            0x08000af8   Section        0  bsp.o(i.BSP_dmaInit)
    BSP_dmaInit                              0x08000af9   Thumb Code   102  bsp.o(i.BSP_dmaInit)
    i.BSP_i2cInit                            0x08000b6c   Section        0  bsp.o(i.BSP_i2cInit)
    BSP_i2cInit                              0x08000b6d   Thumb Code     2  bsp.o(i.BSP_i2cInit)
    i.BSP_init                               0x08000b6e   Section        0  bsp.o(i.BSP_init)
    i.BSP_nvicInit                           0x08000ba2   Section        0  bsp.o(i.BSP_nvicInit)
    BSP_nvicInit                             0x08000ba3   Thumb Code   102  bsp.o(i.BSP_nvicInit)
    i.BSP_spiInit                            0x08000c08   Section        0  bsp.o(i.BSP_spiInit)
    BSP_spiInit                              0x08000c09   Thumb Code    86  bsp.o(i.BSP_spiInit)
    i.BSP_timerInit                          0x08000c64   Section        0  bsp.o(i.BSP_timerInit)
    BSP_timerInit                            0x08000c65   Thumb Code   332  bsp.o(i.BSP_timerInit)
    i.BSP_usartInit                          0x08000dbc   Section        0  bsp.o(i.BSP_usartInit)
    BSP_usartInit                            0x08000dbd   Thumb Code   190  bsp.o(i.BSP_usartInit)
    i.Bsp_adcInit                            0x08000e90   Section        0  bsp.o(i.Bsp_adcInit)
    Bsp_adcInit                              0x08000e91   Thumb Code     2  bsp.o(i.Bsp_adcInit)
    i.Bsp_canInit                            0x08000e94   Section        0  bsp.o(i.Bsp_canInit)
    Bsp_canInit                              0x08000e95   Thumb Code   134  bsp.o(i.Bsp_canInit)
    i.Bsp_extiInit                           0x08000f20   Section        0  bsp.o(i.Bsp_extiInit)
    Bsp_extiInit                             0x08000f21   Thumb Code     2  bsp.o(i.Bsp_extiInit)
    i.Bsp_sdioInit                           0x08000f24   Section        0  sdio_tf.o(i.Bsp_sdioInit)
    i.BusFault_Handler                       0x08001038   Section        0  stm32f4xx_it.o(i.BusFault_Handler)
    i.CAN1_RX0_IRQHandler                    0x0800103c   Section        0  stm32f4xx_it.o(i.CAN1_RX0_IRQHandler)
    i.CAN_DeInit                             0x08001054   Section        0  stm32f4xx_can.o(i.CAN_DeInit)
    i.CAN_FilterInit                         0x0800108c   Section        0  stm32f4xx_can.o(i.CAN_FilterInit)
    i.CAN_Init                               0x08001194   Section        0  stm32f4xx_can.o(i.CAN_Init)
    i.CAN_Receive                            0x080012a8   Section        0  stm32f4xx_can.o(i.CAN_Receive)
    i.CPU_Init                               0x08001398   Section        0  cpu_core.o(i.CPU_Init)
    i.CPU_IntDisMeasInit                     0x080013a8   Section        0  cpu_core.o(i.CPU_IntDisMeasInit)
    CPU_IntDisMeasInit                       0x080013a9   Thumb Code   104  cpu_core.o(i.CPU_IntDisMeasInit)
    i.CPU_IntDisMeasMaxCalc                  0x0800142c   Section        0  cpu_core.o(i.CPU_IntDisMeasMaxCalc)
    CPU_IntDisMeasMaxCalc                    0x0800142d   Thumb Code    24  cpu_core.o(i.CPU_IntDisMeasMaxCalc)
    i.CPU_IntDisMeasMaxCurGet                0x08001448   Section        0  cpu_core.o(i.CPU_IntDisMeasMaxCurGet)
    i.CPU_IntDisMeasMaxCurReset              0x08001474   Section        0  cpu_core.o(i.CPU_IntDisMeasMaxCurReset)
    i.CPU_IntDisMeasMaxGet                   0x080014a0   Section        0  cpu_core.o(i.CPU_IntDisMeasMaxGet)
    i.CPU_IntDisMeasStart                    0x080014cc   Section        0  cpu_core.o(i.CPU_IntDisMeasStart)
    i.CPU_IntDisMeasStop                     0x08001500   Section        0  cpu_core.o(i.CPU_IntDisMeasStop)
    i.CPU_NameClr                            0x08001554   Section        0  cpu_core.o(i.CPU_NameClr)
    i.CPU_NameInit                           0x0800158c   Section        0  cpu_core.o(i.CPU_NameInit)
    CPU_NameInit                             0x0800158d   Thumb Code     8  cpu_core.o(i.CPU_NameInit)
    i.CPU_TS_Init                            0x08001594   Section        0  cpu_core.o(i.CPU_TS_Init)
    CPU_TS_Init                              0x08001595   Thumb Code    14  cpu_core.o(i.CPU_TS_Init)
    i.CPU_TS_TmrFreqSet                      0x080015a8   Section        0  cpu_core.o(i.CPU_TS_TmrFreqSet)
    i.CPU_TS_TmrInit                         0x080015b4   Section        0  bsp.o(i.CPU_TS_TmrInit)
    i.CPU_TS_TmrRd                           0x080015e8   Section        0  bsp.o(i.CPU_TS_TmrRd)
    i.CmdResp1Error                          0x080015f4   Section        0  sdio_tf.o(i.CmdResp1Error)
    CmdResp1Error                            0x080015f5   Thumb Code   298  sdio_tf.o(i.CmdResp1Error)
    i.DMA1_Stream2_IRQHandler                0x08001728   Section        0  stm32f4xx_it.o(i.DMA1_Stream2_IRQHandler)
    i.DMA2_Stream3_IRQHandler                0x08001748   Section        0  stm32f4xx_it.o(i.DMA2_Stream3_IRQHandler)
    i.DMA_ClearFlag                          0x08001780   Section        0  stm32f4xx_dma.o(i.DMA_ClearFlag)
    i.DMA_ClearITPendingBit                  0x080017b4   Section        0  stm32f4xx_dma.o(i.DMA_ClearITPendingBit)
    i.DMA_Cmd                                0x080017e8   Section        0  stm32f4xx_dma.o(i.DMA_Cmd)
    i.DMA_DeInit                             0x08001800   Section        0  stm32f4xx_dma.o(i.DMA_DeInit)
    i.DMA_FlowControllerConfig               0x08001958   Section        0  stm32f4xx_dma.o(i.DMA_FlowControllerConfig)
    i.DMA_GetITStatus                        0x08001970   Section        0  stm32f4xx_dma.o(i.DMA_GetITStatus)
    i.DMA_ITConfig                           0x080019d4   Section        0  stm32f4xx_dma.o(i.DMA_ITConfig)
    i.DMA_Init                               0x08001a10   Section        0  stm32f4xx_dma.o(i.DMA_Init)
    i.DebugMon_Handler                       0x08001a68   Section        0  stm32f4xx_it.o(i.DebugMon_Handler)
    i.EXTI15_10_IRQHandler                   0x08001a6a   Section        0  stm32f4xx_it.o(i.EXTI15_10_IRQHandler)
    i.EXTI9_5_IRQHandler                     0x08001a80   Section        0  stm32f4xx_it.o(i.EXTI9_5_IRQHandler)
    i.EXTI_ClearITPendingBit                 0x08001aa4   Section        0  stm32f4xx_exti.o(i.EXTI_ClearITPendingBit)
    i.EXTI_GetITStatus                       0x08001ab0   Section        0  stm32f4xx_exti.o(i.EXTI_GetITStatus)
    i.FindSCR                                0x08001ac8   Section        0  sdio_tf.o(i.FindSCR)
    FindSCR                                  0x08001ac9   Thumb Code   386  sdio_tf.o(i.FindSCR)
    i.GPIO_Init                              0x08001c5c   Section        0  stm32f4xx_gpio.o(i.GPIO_Init)
    i.GPIO_PinAFConfig                       0x08001cec   Section        0  stm32f4xx_gpio.o(i.GPIO_PinAFConfig)
    i.HardFault_Handler                      0x08001d32   Section        0  stm32f4xx_it.o(i.HardFault_Handler)
    i.MemManage_Handler                      0x08001d36   Section        0  stm32f4xx_it.o(i.MemManage_Handler)
    i.Mem_Clr                                0x08001d3a   Section        0  lib_mem.o(i.Mem_Clr)
    i.Mem_Set                                0x08001d4c   Section        0  lib_mem.o(i.Mem_Set)
    i.NMI_Handler                            0x08001da0   Section        0  stm32f4xx_it.o(i.NMI_Handler)
    i.NVIC_Init                              0x08001da4   Section        0  misc.o(i.NVIC_Init)
    i.NVIC_PriorityGroupConfig               0x08001e1c   Section        0  misc.o(i.NVIC_PriorityGroupConfig)
    i.OSCfg_Init                             0x08001e30   Section        0  os_cfg_app.o(i.OSCfg_Init)
    i.OSIdleTaskHook                         0x08001e34   Section        0  os_cpu_c.o(i.OSIdleTaskHook)
    i.OSInit                                 0x08001e48   Section        0  os_core.o(i.OSInit)
    i.OSInitHook                             0x08001f94   Section        0  os_cpu_c.o(i.OSInitHook)
    i.OSIntEnter                             0x08001fbc   Section        0  os_core.o(i.OSIntEnter)
    i.OSIntExit                              0x08001fe8   Section        0  os_core.o(i.OSIntExit)
    i.OSMemCreate                            0x080020c4   Section        0  os_mem.o(i.OSMemCreate)
    i.OSMemGet                               0x08002160   Section        0  os_mem.o(i.OSMemGet)
    i.OSMemPut                               0x080021c4   Section        0  os_mem.o(i.OSMemPut)
    i.OSMutexCreate                          0x0800222c   Section        0  os_mutex.o(i.OSMutexCreate)
    i.OSMutexPend                            0x08002298   Section        0  os_mutex.o(i.OSMutexPend)
    i.OSMutexPost                            0x08002484   Section        0  os_mutex.o(i.OSMutexPost)
    i.OSSched                                0x08002600   Section        0  os_core.o(i.OSSched)
    i.OSSchedLock                            0x080026a4   Section        0  os_core.o(i.OSSchedLock)
    i.OSSchedUnlock                          0x08002708   Section        0  os_core.o(i.OSSchedUnlock)
    i.OSSemCreate                            0x08002790   Section        0  os_sem.o(i.OSSemCreate)
    i.OSSemPend                              0x080027f8   Section        0  os_sem.o(i.OSSemPend)
    i.OSSemPost                              0x08002980   Section        0  os_sem.o(i.OSSemPost)
    i.OSStart                                0x080029bc   Section        0  os_core.o(i.OSStart)
    i.OSStatReset                            0x08002a24   Section        0  os_stat.o(i.OSStatReset)
    i.OSStatTaskCPUUsageInit                 0x08002b6c   Section        0  os_stat.o(i.OSStatTaskCPUUsageInit)
    i.OSStatTaskHook                         0x08002c6c   Section        0  os_cpu_c.o(i.OSStatTaskHook)
    i.OSTaskChangePrio                       0x08002c80   Section        0  os_task.o(i.OSTaskChangePrio)
    i.OSTaskCreate                           0x08002d20   Section        0  os_task.o(i.OSTaskCreate)
    i.OSTaskCreateHook                       0x08002e64   Section        0  os_cpu_c.o(i.OSTaskCreateHook)
    i.OSTaskQPend                            0x08002e7c   Section        0  os_task.o(i.OSTaskQPend)
    i.OSTaskQPost                            0x08003034   Section        0  os_task.o(i.OSTaskQPost)
    i.OSTaskResume                           0x0800305e   Section        0  os_task.o(i.OSTaskResume)
    i.OSTaskReturnHook                       0x08003094   Section        0  os_cpu_c.o(i.OSTaskReturnHook)
    i.OSTaskSemPend                          0x080030ac   Section        0  os_task.o(i.OSTaskSemPend)
    i.OSTaskSemPost                          0x08003274   Section        0  os_task.o(i.OSTaskSemPost)
    i.OSTaskStkChk                           0x08003298   Section        0  os_task.o(i.OSTaskStkChk)
    i.OSTaskStkInit                          0x08003354   Section        0  os_cpu_c.o(i.OSTaskStkInit)
    i.OSTaskSuspend                          0x08003424   Section        0  os_task.o(i.OSTaskSuspend)
    i.OSTaskSwHook                           0x08003448   Section        0  os_cpu_c.o(i.OSTaskSwHook)
    i.OSTimeDly                              0x080034f4   Section        0  os_time.o(i.OSTimeDly)
    i.OSTimeDlyHMSM                          0x080035a4   Section        0  os_time.o(i.OSTimeDlyHMSM)
    i.OSTimeTick                             0x080036b8   Section        0  os_time.o(i.OSTimeTick)
    i.OSTimeTickHook                         0x080036fc   Section        0  os_cpu_c.o(i.OSTimeTickHook)
    i.OS_CPU_SysTickHandler                  0x08003710   Section        0  os_cpu_c.o(i.OS_CPU_SysTickHandler)
    i.OS_CPU_SysTickInit                     0x08003750   Section        0  os_cpu_c.o(i.OS_CPU_SysTickInit)
    i.OS_Dbg_Init                            0x08003780   Section        0  os_dbg.o(i.OS_Dbg_Init)
    i.OS_FlagInit                            0x08003928   Section        0  os_flag.o(i.OS_FlagInit)
    i.OS_IdleTask                            0x08003940   Section        0  os_core.o(i.OS_IdleTask)
    i.OS_IdleTaskInit                        0x0800398c   Section        0  os_core.o(i.OS_IdleTaskInit)
    i.OS_MemDbgListAdd                       0x080039fc   Section        0  os_mem.o(i.OS_MemDbgListAdd)
    i.OS_MemInit                             0x08003a24   Section        0  os_mem.o(i.OS_MemInit)
    i.OS_MsgPoolInit                         0x08003a3c   Section        0  os_msg.o(i.OS_MsgPoolInit)
    i.OS_MsgQGet                             0x08003a98   Section        0  os_msg.o(i.OS_MsgQGet)
    i.OS_MsgQInit                            0x08003b00   Section        0  os_msg.o(i.OS_MsgQInit)
    i.OS_MsgQPut                             0x08003b10   Section        0  os_msg.o(i.OS_MsgQPut)
    i.OS_MutexDbgListAdd                     0x08003c14   Section        0  os_mutex.o(i.OS_MutexDbgListAdd)
    i.OS_MutexGrpAdd                         0x08003c44   Section        0  os_mutex.o(i.OS_MutexGrpAdd)
    i.OS_MutexGrpPrioFindHighest             0x08003c4c   Section        0  os_mutex.o(i.OS_MutexGrpPrioFindHighest)
    i.OS_MutexGrpRemove                      0x08003c78   Section        0  os_mutex.o(i.OS_MutexGrpRemove)
    i.OS_MutexInit                           0x08003c94   Section        0  os_mutex.o(i.OS_MutexInit)
    i.OS_Pend                                0x08003cac   Section        0  os_core.o(i.OS_Pend)
    i.OS_PendDataInit                        0x08003d14   Section        0  os_core.o(i.OS_PendDataInit)
    i.OS_PendDbgNameAdd                      0x08003d3c   Section        0  os_core.o(i.OS_PendDbgNameAdd)
    i.OS_PendDbgNameRemove                   0x08003d98   Section        0  os_core.o(i.OS_PendDbgNameRemove)
    i.OS_PendListChangePrio                  0x08003dbc   Section        0  os_core.o(i.OS_PendListChangePrio)
    i.OS_PendListInit                        0x08003df6   Section        0  os_core.o(i.OS_PendListInit)
    i.OS_PendListInsertPrio                  0x08003e00   Section        0  os_core.o(i.OS_PendListInsertPrio)
    i.OS_PendListRemove                      0x08003e66   Section        0  os_core.o(i.OS_PendListRemove)
    i.OS_PendListRemove1                     0x08003e9a   Section        0  os_core.o(i.OS_PendListRemove1)
    i.OS_Post                                0x08003edc   Section        0  os_core.o(i.OS_Post)
    i.OS_Post1                               0x08003fb2   Section        0  os_core.o(i.OS_Post1)
    i.OS_PrioGetHighest                      0x08003fe0   Section        0  os_prio.o(i.OS_PrioGetHighest)
    i.OS_PrioInit                            0x08004008   Section        0  os_prio.o(i.OS_PrioInit)
    i.OS_PrioInsert                          0x08004020   Section        0  os_prio.o(i.OS_PrioInsert)
    i.OS_PrioRemove                          0x08004044   Section        0  os_prio.o(i.OS_PrioRemove)
    i.OS_QInit                               0x08004068   Section        0  os_q.o(i.OS_QInit)
    i.OS_RdyListInit                         0x08004080   Section        0  os_core.o(i.OS_RdyListInit)
    i.OS_RdyListInsert                       0x080040a4   Section        0  os_core.o(i.OS_RdyListInsert)
    i.OS_RdyListInsertHead                   0x080040d0   Section        0  os_core.o(i.OS_RdyListInsertHead)
    i.OS_RdyListInsertTail                   0x08004110   Section        0  os_core.o(i.OS_RdyListInsertTail)
    i.OS_RdyListRemove                       0x0800414c   Section        0  os_core.o(i.OS_RdyListRemove)
    i.OS_SemDbgListAdd                       0x080041a8   Section        0  os_sem.o(i.OS_SemDbgListAdd)
    i.OS_SemInit                             0x080041d8   Section        0  os_sem.o(i.OS_SemInit)
    i.OS_SemPost                             0x080041f0   Section        0  os_sem.o(i.OS_SemPost)
    i.OS_StatTask                            0x08004330   Section        0  os_stat.o(i.OS_StatTask)
    i.OS_StatTaskInit                        0x08004654   Section        0  os_stat.o(i.OS_StatTaskInit)
    i.OS_TaskBlock                           0x08004720   Section        0  os_core.o(i.OS_TaskBlock)
    i.OS_TaskChangePrio                      0x0800474c   Section        0  os_task.o(i.OS_TaskChangePrio)
    i.OS_TaskDbgListAdd                      0x08004838   Section        0  os_task.o(i.OS_TaskDbgListAdd)
    i.OS_TaskInit                            0x08004868   Section        0  os_task.o(i.OS_TaskInit)
    i.OS_TaskInitTCB                         0x08004888   Section        0  os_task.o(i.OS_TaskInitTCB)
    i.OS_TaskQPost                           0x0800494c   Section        0  os_task.o(i.OS_TaskQPost)
    i.OS_TaskResume                          0x08004a40   Section        0  os_task.o(i.OS_TaskResume)
    i.OS_TaskReturn                          0x08004b5c   Section        0  os_task.o(i.OS_TaskReturn)
    i.OS_TaskSemPost                         0x08004b80   Section        0  os_task.o(i.OS_TaskSemPost)
    i.OS_TaskSuspend                         0x08004d70   Section        0  os_task.o(i.OS_TaskSuspend)
    i.OS_TickListInsert                      0x08004ea8   Section        0  os_tick.o(i.OS_TickListInsert)
    i.OS_TickListInsertDly                   0x08004f30   Section        0  os_tick.o(i.OS_TickListInsertDly)
    i.OS_TickListRemove                      0x08004fec   Section        0  os_tick.o(i.OS_TickListRemove)
    i.OS_TickListUpdateDly                   0x08005044   Section        0  os_tick.o(i.OS_TickListUpdateDly)
    OS_TickListUpdateDly                     0x08005045   Thumb Code   154  os_tick.o(i.OS_TickListUpdateDly)
    i.OS_TickListUpdateTimeout               0x080050e4   Section        0  os_tick.o(i.OS_TickListUpdateTimeout)
    OS_TickListUpdateTimeout                 0x080050e5   Thumb Code   280  os_tick.o(i.OS_TickListUpdateTimeout)
    i.OS_TickTask                            0x08005200   Section        0  os_tick.o(i.OS_TickTask)
    i.OS_TickTaskInit                        0x0800526c   Section        0  os_tick.o(i.OS_TickTaskInit)
    i.OS_TmrInit                             0x08005334   Section        0  os_tmr.o(i.OS_TmrInit)
    i.OS_TmrLock                             0x08005468   Section        0  os_tmr.o(i.OS_TmrLock)
    OS_TmrLock                               0x08005469   Thumb Code    20  os_tmr.o(i.OS_TmrLock)
    i.OS_TmrTask                             0x08005480   Section        0  os_tmr.o(i.OS_TmrTask)
    i.OS_TmrUnlink                           0x08005514   Section        0  os_tmr.o(i.OS_TmrUnlink)
    i.OS_TmrUnlock                           0x08005558   Section        0  os_tmr.o(i.OS_TmrUnlock)
    OS_TmrUnlock                             0x08005559   Thumb Code    14  os_tmr.o(i.OS_TmrUnlock)
    i.RCC_AHB1PeriphClockCmd                 0x0800556c   Section        0  stm32f4xx_rcc.o(i.RCC_AHB1PeriphClockCmd)
    i.RCC_APB1PeriphClockCmd                 0x0800558c   Section        0  stm32f4xx_rcc.o(i.RCC_APB1PeriphClockCmd)
    i.RCC_APB1PeriphResetCmd                 0x080055ac   Section        0  stm32f4xx_rcc.o(i.RCC_APB1PeriphResetCmd)
    i.RCC_APB2PeriphClockCmd                 0x080055cc   Section        0  stm32f4xx_rcc.o(i.RCC_APB2PeriphClockCmd)
    i.RCC_APB2PeriphResetCmd                 0x080055ec   Section        0  stm32f4xx_rcc.o(i.RCC_APB2PeriphResetCmd)
    i.RCC_GetClocksFreq                      0x0800560c   Section        0  stm32f4xx_rcc.o(i.RCC_GetClocksFreq)
    i.SDIO_ClearFlag                         0x080056f4   Section        0  stm32f4xx_sdio.o(i.SDIO_ClearFlag)
    i.SDIO_ClearITPendingBit                 0x08005700   Section        0  stm32f4xx_sdio.o(i.SDIO_ClearITPendingBit)
    i.SDIO_ClockCmd                          0x0800570c   Section        0  stm32f4xx_sdio.o(i.SDIO_ClockCmd)
    i.SDIO_DMACmd                            0x08005718   Section        0  stm32f4xx_sdio.o(i.SDIO_DMACmd)
    i.SDIO_DataConfig                        0x08005724   Section        0  stm32f4xx_sdio.o(i.SDIO_DataConfig)
    i.SDIO_DeInit                            0x08005758   Section        0  stm32f4xx_sdio.o(i.SDIO_DeInit)
    i.SDIO_GetCommandResponse                0x08005770   Section        0  stm32f4xx_sdio.o(i.SDIO_GetCommandResponse)
    i.SDIO_GetFlagStatus                     0x0800577c   Section        0  stm32f4xx_sdio.o(i.SDIO_GetFlagStatus)
    i.SDIO_GetITStatus                       0x08005794   Section        0  stm32f4xx_sdio.o(i.SDIO_GetITStatus)
    i.SDIO_GetPowerState                     0x080057ac   Section        0  stm32f4xx_sdio.o(i.SDIO_GetPowerState)
    i.SDIO_GetResponse                       0x080057bc   Section        0  stm32f4xx_sdio.o(i.SDIO_GetResponse)
    i.SDIO_IRQHandler                        0x080057d4   Section        0  stm32f4xx_it.o(i.SDIO_IRQHandler)
    i.SDIO_ITConfig                          0x0800580c   Section        0  stm32f4xx_sdio.o(i.SDIO_ITConfig)
    i.SDIO_Init                              0x0800582c   Section        0  stm32f4xx_sdio.o(i.SDIO_Init)
    i.SDIO_ReadData                          0x0800585c   Section        0  stm32f4xx_sdio.o(i.SDIO_ReadData)
    i.SDIO_SendCommand                       0x08005868   Section        0  stm32f4xx_sdio.o(i.SDIO_SendCommand)
    i.SDIO_SetPowerState                     0x08005894   Section        0  stm32f4xx_sdio.o(i.SDIO_SetPowerState)
    i.SD_Detect                              0x080058a0   Section        0  sdio_tf.o(i.SD_Detect)
    i.SD_GetState                            0x080058a8   Section        0  sdio_tf.o(i.SD_GetState)
    i.SD_GetStatus                           0x080058ce   Section        0  sdio_tf.o(i.SD_GetStatus)
    i.SD_InitializeCards                     0x080058ec   Section        0  sdio_tf.o(i.SD_InitializeCards)
    i.SD_LowLevel_DMA_RxConfig               0x08005a28   Section        0  sdio_tf.o(i.SD_LowLevel_DMA_RxConfig)
    i.SD_LowLevel_DMA_TxConfig               0x08005ab4   Section        0  sdio_tf.o(i.SD_LowLevel_DMA_TxConfig)
    i.SD_ProcessDMAIRQ                       0x08005b44   Section        0  sdio_tf.o(i.SD_ProcessDMAIRQ)
    i.SD_ProcessIRQSrc                       0x08005b98   Section        0  sdio_tf.o(i.SD_ProcessIRQSrc)
    i.SD_ReadBlock                           0x08005c44   Section        0  sdio_tf.o(i.SD_ReadBlock)
    i.SD_ReadMultiBlocks                     0x08005d34   Section        0  sdio_tf.o(i.SD_ReadMultiBlocks)
    i.SD_SendStatus                          0x08005e2c   Section        0  sdio_tf.o(i.SD_SendStatus)
    i.SD_StopTransfer                        0x08005e80   Section        0  sdio_tf.o(i.SD_StopTransfer)
    i.SD_WaitReadOperation                   0x08005eb4   Section        0  sdio_tf.o(i.SD_WaitReadOperation)
    i.SD_WaitWriteOperation                  0x08005f48   Section        0  sdio_tf.o(i.SD_WaitWriteOperation)
    i.SD_WriteBlock                          0x08005fdc   Section        0  sdio_tf.o(i.SD_WriteBlock)
    i.SD_WriteMultiBlocks                    0x080060c8   Section        0  sdio_tf.o(i.SD_WriteMultiBlocks)
    i.SD_enableWideBusOperation              0x08006220   Section        0  sdio_tf.o(i.SD_enableWideBusOperation)
    i.SD_getCardInfo                         0x080062b0   Section        0  sdio_tf.o(i.SD_getCardInfo)
    i.SD_powerOn                             0x080065cc   Section        0  sdio_tf.o(i.SD_powerOn)
    i.SD_selectDeselect                      0x080067a0   Section        0  sdio_tf.o(i.SD_selectDeselect)
    i.SPI_Cmd                                0x080067d8   Section        0  stm32f4xx_spi.o(i.SPI_Cmd)
    i.SPI_I2S_GetFlagStatus                  0x080067f0   Section        0  stm32f4xx_spi.o(i.SPI_I2S_GetFlagStatus)
    i.SPI_I2S_ReceiveData                    0x08006802   Section        0  stm32f4xx_spi.o(i.SPI_I2S_ReceiveData)
    i.SPI_I2S_SendData                       0x08006808   Section        0  stm32f4xx_spi.o(i.SPI_I2S_SendData)
    i.SPI_Init                               0x0800680c   Section        0  stm32f4xx_spi.o(i.SPI_Init)
    i.SVC_Handler                            0x08006848   Section        0  stm32f4xx_it.o(i.SVC_Handler)
    i.SetSysClock                            0x0800684c   Section        0  system_stm32f4xx.o(i.SetSysClock)
    SetSysClock                              0x0800684d   Thumb Code   220  system_stm32f4xx.o(i.SetSysClock)
    i.SystemInit                             0x08006938   Section        0  system_stm32f4xx.o(i.SystemInit)
    i.TI1_Config                             0x080069a0   Section        0  stm32f4xx_tim.o(i.TI1_Config)
    TI1_Config                               0x080069a1   Thumb Code    58  stm32f4xx_tim.o(i.TI1_Config)
    i.TI2_Config                             0x080069da   Section        0  stm32f4xx_tim.o(i.TI2_Config)
    TI2_Config                               0x080069db   Thumb Code    80  stm32f4xx_tim.o(i.TI2_Config)
    i.TI3_Config                             0x08006a2a   Section        0  stm32f4xx_tim.o(i.TI3_Config)
    TI3_Config                               0x08006a2b   Thumb Code    72  stm32f4xx_tim.o(i.TI3_Config)
    i.TI4_Config                             0x08006a72   Section        0  stm32f4xx_tim.o(i.TI4_Config)
    TI4_Config                               0x08006a73   Thumb Code    80  stm32f4xx_tim.o(i.TI4_Config)
    i.TIM1_CC_IRQHandler                     0x08006ac4   Section        0  stm32f4xx_it.o(i.TIM1_CC_IRQHandler)
    i.TIM2_IRQHandler                        0x08006ae0   Section        0  stm32f4xx_it.o(i.TIM2_IRQHandler)
    i.TIM3_IRQHandler                        0x08006af8   Section        0  stm32f4xx_it.o(i.TIM3_IRQHandler)
    i.TIM4_IRQHandler                        0x08006b5c   Section        0  stm32f4xx_it.o(i.TIM4_IRQHandler)
    i.TIM_ARRPreloadConfig                   0x08006c44   Section        0  stm32f4xx_tim.o(i.TIM_ARRPreloadConfig)
    i.TIM_ClearITPendingBit                  0x08006c5c   Section        0  stm32f4xx_tim.o(i.TIM_ClearITPendingBit)
    i.TIM_Cmd                                0x08006c62   Section        0  stm32f4xx_tim.o(i.TIM_Cmd)
    i.TIM_GetCapture4                        0x08006c7a   Section        0  stm32f4xx_tim.o(i.TIM_GetCapture4)
    i.TIM_GetITStatus                        0x08006c80   Section        0  stm32f4xx_tim.o(i.TIM_GetITStatus)
    i.TIM_ICInit                             0x08006ca2   Section        0  stm32f4xx_tim.o(i.TIM_ICInit)
    i.TIM_ITConfig                           0x08006d10   Section        0  stm32f4xx_tim.o(i.TIM_ITConfig)
    i.TIM_OC1Init                            0x08006d24   Section        0  stm32f4xx_tim.o(i.TIM_OC1Init)
    i.TIM_OC1PreloadConfig                   0x08006da0   Section        0  stm32f4xx_tim.o(i.TIM_OC1PreloadConfig)
    i.TIM_OC2Init                            0x08006db4   Section        0  stm32f4xx_tim.o(i.TIM_OC2Init)
    i.TIM_OC3Init                            0x08006e58   Section        0  stm32f4xx_tim.o(i.TIM_OC3Init)
    i.TIM_OC4Init                            0x08006ef8   Section        0  stm32f4xx_tim.o(i.TIM_OC4Init)
    i.TIM_SetCompare1                        0x08006f70   Section        0  stm32f4xx_tim.o(i.TIM_SetCompare1)
    i.TIM_SetCompare2                        0x08006f74   Section        0  stm32f4xx_tim.o(i.TIM_SetCompare2)
    i.TIM_SetCompare3                        0x08006f78   Section        0  stm32f4xx_tim.o(i.TIM_SetCompare3)
    i.TIM_SetCompare4                        0x08006f7c   Section        0  stm32f4xx_tim.o(i.TIM_SetCompare4)
    i.TIM_SetIC1Prescaler                    0x08006f80   Section        0  stm32f4xx_tim.o(i.TIM_SetIC1Prescaler)
    i.TIM_SetIC2Prescaler                    0x08006f92   Section        0  stm32f4xx_tim.o(i.TIM_SetIC2Prescaler)
    i.TIM_SetIC3Prescaler                    0x08006fac   Section        0  stm32f4xx_tim.o(i.TIM_SetIC3Prescaler)
    i.TIM_SetIC4Prescaler                    0x08006fbe   Section        0  stm32f4xx_tim.o(i.TIM_SetIC4Prescaler)
    i.TIM_TimeBaseInit                       0x08006fd8   Section        0  stm32f4xx_tim.o(i.TIM_TimeBaseInit)
    i.UART4_IRQHandler                       0x0800705c   Section        0  stm32f4xx_it.o(i.UART4_IRQHandler)
    i.USART2_IRQHandler                      0x080072bc   Section        0  stm32f4xx_it.o(i.USART2_IRQHandler)
    i.USART3_IRQHandler                      0x080073ec   Section        0  stm32f4xx_it.o(i.USART3_IRQHandler)
    i.USART_ClearITPendingBit                0x08007504   Section        0  stm32f4xx_usart.o(i.USART_ClearITPendingBit)
    i.USART_Cmd                              0x08007522   Section        0  stm32f4xx_usart.o(i.USART_Cmd)
    i.USART_DMACmd                           0x0800753a   Section        0  stm32f4xx_usart.o(i.USART_DMACmd)
    i.USART_GetFlagStatus                    0x0800754c   Section        0  stm32f4xx_usart.o(i.USART_GetFlagStatus)
    i.USART_GetITStatus                      0x08007566   Section        0  stm32f4xx_usart.o(i.USART_GetITStatus)
    i.USART_ITConfig                         0x080075ba   Section        0  stm32f4xx_usart.o(i.USART_ITConfig)
    i.USART_Init                             0x08007604   Section        0  stm32f4xx_usart.o(i.USART_Init)
    i.USART_ReceiveData                      0x080076d8   Section        0  stm32f4xx_usart.o(i.USART_ReceiveData)
    i.USART_SendData                         0x080076e2   Section        0  stm32f4xx_usart.o(i.USART_SendData)
    i.UsageFault_Handler                     0x080076ea   Section        0  stm32f4xx_it.o(i.UsageFault_Handler)
    i.__0printf                              0x080076f0   Section        0  printfa.o(i.__0printf)
    i.__0sprintf                             0x08007710   Section        0  printfa.o(i.__0sprintf)
    i.__scatterload_copy                     0x08007738   Section       14  handlers.o(i.__scatterload_copy)
    i.__scatterload_null                     0x08007746   Section        2  handlers.o(i.__scatterload_null)
    i.__scatterload_zeroinit                 0x08007748   Section       14  handlers.o(i.__scatterload_zeroinit)
    i._fp_digits                             0x08007758   Section        0  printfa.o(i._fp_digits)
    _fp_digits                               0x08007759   Thumb Code   334  printfa.o(i._fp_digits)
    i._printf_core                           0x080078bc   Section        0  printfa.o(i._printf_core)
    _printf_core                             0x080078bd   Thumb Code  1744  printfa.o(i._printf_core)
    i._printf_post_padding                   0x08007f98   Section        0  printfa.o(i._printf_post_padding)
    _printf_post_padding                     0x08007f99   Thumb Code    36  printfa.o(i._printf_post_padding)
    i._printf_pre_padding                    0x08007fbc   Section        0  printfa.o(i._printf_pre_padding)
    _printf_pre_padding                      0x08007fbd   Thumb Code    46  printfa.o(i._printf_pre_padding)
    i._sputc                                 0x08007fea   Section        0  printfa.o(i._sputc)
    _sputc                                   0x08007feb   Thumb Code    10  printfa.o(i._sputc)
    i.appBlackBox                            0x08007ff4   Section        0  apppresent.o(i.appBlackBox)
    i.appBuzzer                              0x08008464   Section        0  apppresent.o(i.appBuzzer)
    i.appCmdHander                           0x08008530   Section        0  appcommunicate.o(i.appCmdHander)
    i.appMainCycle                           0x08008a3c   Section        0  appcontroller.o(i.appMainCycle)
    i.appPositionCtl                         0x08009238   Section        0  appcontroller.o(i.appPositionCtl)
    i.appSendBluetooth                       0x0800924c   Section        0  appcommunicate.o(i.appSendBluetooth)
    i.appTaskStart                           0x08009bc8   Section        0  app.o(i.appTaskStart)
    i.appTest                                0x08009fc0   Section        0  app.o(i.appTest)
    appTest                                  0x08009fc1   Thumb Code    32  app.o(i.appTest)
    i.appWatchDog                            0x08009fec   Section        0  app.o(i.appWatchDog)
    i.at25320_WRDI                           0x0800a09c   Section        0  at25320.o(i.at25320_WRDI)
    i.at25320_WREN                           0x0800a0c4   Section        0  at25320.o(i.at25320_WREN)
    i.at25320_readBuffer                     0x0800a0ec   Section        0  at25320.o(i.at25320_readBuffer)
    i.at25320_swapByte                       0x0800a140   Section        0  at25320.o(i.at25320_swapByte)
    at25320_swapByte                         0x0800a141   Thumb Code    42  at25320.o(i.at25320_swapByte)
    i.at25320_writeBuffer                    0x0800a178   Section        0  at25320.o(i.at25320_writeBuffer)
    i.check_fs                               0x0800a1cc   Section        0  ff.o(i.check_fs)
    check_fs                                 0x0800a1cd   Thumb Code   116  ff.o(i.check_fs)
    i.chk_chr                                0x0800a248   Section        0  ff.o(i.chk_chr)
    chk_chr                                  0x0800a249   Thumb Code    20  ff.o(i.chk_chr)
    i.clmt_clust                             0x0800a25c   Section        0  ff.o(i.clmt_clust)
    clmt_clust                               0x0800a25d   Thumb Code    50  ff.o(i.clmt_clust)
    i.clust2sect                             0x0800a28e   Section        0  ff.o(i.clust2sect)
    clust2sect                               0x0800a28f   Thumb Code    26  ff.o(i.clust2sect)
    i.cmdError                               0x0800a2a8   Section        0  sdio_tf.o(i.cmdError)
    cmdError                                 0x0800a2a9   Thumb Code    44  sdio_tf.o(i.cmdError)
    i.cmdResp2Error                          0x0800a2d4   Section        0  sdio_tf.o(i.cmdResp2Error)
    cmdResp2Error                            0x0800a2d5   Thumb Code    52  sdio_tf.o(i.cmdResp2Error)
    i.cmdResp3Error                          0x0800a30c   Section        0  sdio_tf.o(i.cmdResp3Error)
    cmdResp3Error                            0x0800a30d   Thumb Code    52  sdio_tf.o(i.cmdResp3Error)
    i.cmdResp6Error                          0x0800a344   Section        0  sdio_tf.o(i.cmdResp6Error)
    cmdResp6Error                            0x0800a345   Thumb Code   148  sdio_tf.o(i.cmdResp6Error)
    i.cmdResp7Error                          0x0800a3dc   Section        0  sdio_tf.o(i.cmdResp7Error)
    cmdResp7Error                            0x0800a3dd   Thumb Code    72  sdio_tf.o(i.cmdResp7Error)
    i.cmpWifiStr                             0x0800a428   Section        0  stm32f4xx_it.o(i.cmpWifiStr)
    i.constrain_float                        0x0800a498   Section        0  appcontroller.o(i.constrain_float)
    i.crc32Calculate                         0x0800a4b8   Section        0  crctable.o(i.crc32Calculate)
    i.create_chain                           0x0800a4d0   Section        0  ff.o(i.create_chain)
    create_chain                             0x0800a4d1   Thumb Code   224  ff.o(i.create_chain)
    i.create_name                            0x0800a5b0   Section        0  ff.o(i.create_name)
    create_name                              0x0800a5b1   Thumb Code   262  ff.o(i.create_name)
    i.dir_alloc                              0x0800a6c8   Section        0  ff.o(i.dir_alloc)
    dir_alloc                                0x0800a6c9   Thumb Code    96  ff.o(i.dir_alloc)
    i.dir_find                               0x0800a728   Section        0  ff.o(i.dir_find)
    dir_find                                 0x0800a729   Thumb Code   108  ff.o(i.dir_find)
    i.dir_next                               0x0800a794   Section        0  ff.o(i.dir_next)
    dir_next                                 0x0800a795   Thumb Code   268  ff.o(i.dir_next)
    i.dir_register                           0x0800a8a0   Section        0  ff.o(i.dir_register)
    dir_register                             0x0800a8a1   Thumb Code    60  ff.o(i.dir_register)
    i.dir_sdi                                0x0800a8dc   Section        0  ff.o(i.dir_sdi)
    dir_sdi                                  0x0800a8dd   Thumb Code   154  ff.o(i.dir_sdi)
    i.disk_initialize                        0x0800a976   Section        0  diskio.o(i.disk_initialize)
    i.disk_ioctl                             0x0800a99c   Section        0  diskio.o(i.disk_ioctl)
    i.disk_read                              0x0800aa10   Section        0  diskio.o(i.disk_read)
    i.disk_status                            0x0800aa94   Section        0  diskio.o(i.disk_status)
    i.disk_write                             0x0800aab0   Section        0  diskio.o(i.disk_write)
    i.f_close                                0x0800ab34   Section        0  ff.o(i.f_close)
    i.f_lseek                                0x0800ab56   Section        0  ff.o(i.f_lseek)
    i.f_mount                                0x0800ae04   Section        0  ff.o(i.f_mount)
    i.f_open                                 0x0800ae60   Section        0  ff.o(i.f_open)
    i.f_read                                 0x0800b052   Section        0  ff.o(i.f_read)
    i.f_stat                                 0x0800b1fe   Section        0  ff.o(i.f_stat)
    i.f_sync                                 0x0800b23c   Section        0  ff.o(i.f_sync)
    i.f_write                                0x0800b2dc   Section        0  ff.o(i.f_write)
    i.find_volume                            0x0800b4cc   Section        0  ff.o(i.find_volume)
    find_volume                              0x0800b4cd   Thumb Code   744  ff.o(i.find_volume)
    i.follow_path                            0x0800b7c4   Section        0  ff.o(i.follow_path)
    follow_path                              0x0800b7c5   Thumb Code   162  ff.o(i.follow_path)
    i.fputc                                  0x0800b866   Section        0  bsp.o(i.fputc)
    i.fun_createTaskSimple                   0x0800b87c   Section        0  function.o(i.fun_createTaskSimple)
    i.fun_delayMs                            0x0800b8d0   Section        0  function.o(i.fun_delayMs)
    i.fun_delayUs                            0x0800b8f0   Section        0  function.o(i.fun_delayUs)
    i.fun_nvicSetNormal                      0x0800b934   Section        0  function.o(i.fun_nvicSetNormal)
    i.fun_spiSwap                            0x0800b956   Section        0  function.o(i.fun_spiSwap)
    i.fun_usartSend                          0x0800b988   Section        0  function.o(i.fun_usartSend)
    i.getFileNameFromNumber                  0x0800b9a6   Section        0  apppresent.o(i.getFileNameFromNumber)
    i.get_fat                                0x0800ba3a   Section        0  ff.o(i.get_fat)
    get_fat                                  0x0800ba3b   Thumb Code   224  ff.o(i.get_fat)
    i.get_fattime                            0x0800bb1a   Section        0  ff_driver.o(i.get_fattime)
    i.get_fileinfo                           0x0800bb1e   Section        0  ff.o(i.get_fileinfo)
    get_fileinfo                             0x0800bb1f   Thumb Code   140  ff.o(i.get_fileinfo)
    i.get_ldnumber                           0x0800bbaa   Section        0  ff.o(i.get_ldnumber)
    get_ldnumber                             0x0800bbab   Thumb Code    74  ff.o(i.get_ldnumber)
    i.ld_clust                               0x0800bbf4   Section        0  ff.o(i.ld_clust)
    ld_clust                                 0x0800bbf5   Thumb Code    38  ff.o(i.ld_clust)
    i.ld_dword                               0x0800bc1a   Section        0  ff.o(i.ld_dword)
    ld_dword                                 0x0800bc1b   Thumb Code    24  ff.o(i.ld_dword)
    i.ld_word                                0x0800bc32   Section        0  ff.o(i.ld_word)
    ld_word                                  0x0800bc33   Thumb Code    12  ff.o(i.ld_word)
    i.main                                   0x0800bc40   Section        0  main.o(i.main)
    i.mem_cmp                                0x0800bca4   Section        0  ff.o(i.mem_cmp)
    mem_cmp                                  0x0800bca5   Thumb Code    36  ff.o(i.mem_cmp)
    i.mem_cpy                                0x0800bcc8   Section        0  ff.o(i.mem_cpy)
    mem_cpy                                  0x0800bcc9   Thumb Code    26  ff.o(i.mem_cpy)
    i.mem_set                                0x0800bce2   Section        0  ff.o(i.mem_set)
    mem_set                                  0x0800bce3   Thumb Code    18  ff.o(i.mem_set)
    i.move_window                            0x0800bcf4   Section        0  ff.o(i.move_window)
    move_window                              0x0800bcf5   Thumb Code    52  ff.o(i.move_window)
    i.put_fat                                0x0800bd28   Section        0  ff.o(i.put_fat)
    put_fat                                  0x0800bd29   Thumb Code   312  ff.o(i.put_fat)
    i.remove_chain                           0x0800be60   Section        0  ff.o(i.remove_chain)
    remove_chain                             0x0800be61   Thumb Code   150  ff.o(i.remove_chain)
    i.sdEnWideBus                            0x0800bef8   Section        0  sdio_tf.o(i.sdEnWideBus)
    sdEnWideBus                              0x0800bef9   Thumb Code   274  sdio_tf.o(i.sdEnWideBus)
    i.setMotor                               0x0800c014   Section        0  appcontroller.o(i.setMotor)
    i.st_clust                               0x0800c048   Section        0  ff.o(i.st_clust)
    st_clust                                 0x0800c049   Thumb Code    36  ff.o(i.st_clust)
    i.st_dword                               0x0800c06c   Section        0  ff.o(i.st_dword)
    st_dword                                 0x0800c06d   Thumb Code    24  ff.o(i.st_dword)
    i.st_word                                0x0800c084   Section        0  ff.o(i.st_word)
    st_word                                  0x0800c085   Thumb Code    12  ff.o(i.st_word)
    i.sync_fs                                0x0800c090   Section        0  ff.o(i.sync_fs)
    sync_fs                                  0x0800c091   Thumb Code   134  ff.o(i.sync_fs)
    i.sync_window                            0x0800c120   Section        0  ff.o(i.sync_window)
    sync_window                              0x0800c121   Thumb Code    82  ff.o(i.sync_window)
    i.usartSendStr                           0x0800c172   Section        0  appcommunicate.o(i.usartSendStr)
    i.validate                               0x0800c18c   Section        0  ff.o(i.validate)
    validate                                 0x0800c18d   Thumb Code    66  ff.o(i.validate)
    .constdata                               0x0800c1ce   Section       25  stm32f4xx_it.o(.constdata)
    .constdata                               0x0800c1e8   Section      148  os_cfg_app.o(.constdata)
    .constdata                               0x0800c27c   Section      364  os_dbg.o(.constdata)
    .constdata                               0x0800c3e8   Section       98  appcommunicate.o(.constdata)
    .data                                    0x20000000   Section       16  stm32f4xx_rcc.o(.data)
    APBAHBPrescTable                         0x20000000   Data          16  stm32f4xx_rcc.o(.data)
    .data                                    0x20000010   Section       22  stm32f4xx_it.o(.data)
    lastValue                                0x20000018   Data           1  stm32f4xx_it.o(.data)
    counter                                  0x20000019   Data           1  stm32f4xx_it.o(.data)
    counter                                  0x2000001a   Data           1  stm32f4xx_it.o(.data)
    counter                                  0x2000001b   Data           1  stm32f4xx_it.o(.data)
    timeCounter                              0x2000001c   Data           1  stm32f4xx_it.o(.data)
    ic4ValueLast                             0x20000020   Data           4  stm32f4xx_it.o(.data)
    counter                                  0x20000024   Data           1  stm32f4xx_it.o(.data)
    wifiRecFlag                              0x20000025   Data           1  stm32f4xx_it.o(.data)
    .data                                    0x20000028   Section       24  sdio_tf.o(.data)
    cardType                                 0x20000028   Data           4  sdio_tf.o(.data)
    RCA                                      0x2000002c   Data           4  sdio_tf.o(.data)
    .data                                    0x20000040   Section       28  cpu_core.o(.data)
    .data                                    0x2000005c   Section        4  os_cpu_c.o(.data)
    .data                                    0x20000060   Section        8  os_prio.o(.data)
    .data                                    0x20000068   Section      188  os_var.o(.data)
    .data                                    0x20000124   Section        4  app.o(.data)
    .data                                    0x20000128   Section        1  apppresent.o(.data)
    .data                                    0x2000012c   Section      392  appcommunicate.o(.data)
    uavPara                                  0x20000134   Data         256  appcommunicate.o(.data)
    uavConfig                                0x20000234   Data         128  appcommunicate.o(.data)
    .data                                    0x200002b4   Section       10  ff.o(.data)
    FatFs                                    0x200002b4   Data           8  ff.o(.data)
    Fsid                                     0x200002bc   Data           2  ff.o(.data)
    .data                                    0x200002c0   Section        4  stdout.o(.data)
    .bss                                     0x200002c4   Section      296  bsp.o(.bss)
    .bss                                     0x200003ec   Section       12  stm32f4xx_it.o(.bss)
    .bss                                     0x200003f8   Section      204  sdio_tf.o(.bss)
    CSD_Tab                                  0x200003f8   Data          16  sdio_tf.o(.bss)
    CID_Tab                                  0x20000408   Data          16  sdio_tf.o(.bss)
    SDSTATUS_Tab                             0x20000418   Data          16  sdio_tf.o(.bss)
    .bss                                     0x200004c4   Section     1216  main.o(.bss)
    appTaskStartStk                          0x20000584   Data        1024  main.o(.bss)
    .bss                                     0x20000984   Section       16  cpu_core.o(.bss)
    .bss                                     0x20000994   Section     3936  os_cfg_app.o(.bss)
    .bss                                     0x200018f4   Section     1596  os_var.o(.bss)
    .bss                                     0x20001f30   Section    15888  app.o(.bss)
    appTestStk                               0x20001f30   Data        2048  app.o(.bss)
    appBlackBoxStk                           0x20002730   Data        4096  app.o(.bss)
    appBuzzerStk                             0x20003730   Data        1024  app.o(.bss)
    appSendBluetoothStk                      0x20003b30   Data        1024  app.o(.bss)
    appWatchDogStk                           0x20003f30   Data        1024  app.o(.bss)
    appMainCycleStk                          0x20004330   Data        2048  app.o(.bss)
    appCmdHanderStk                          0x20004b30   Data        1024  app.o(.bss)
    appPositionCtlStk                        0x20004f30   Data        1024  app.o(.bss)
    .bss                                     0x20005d40   Section      138  apppresent.o(.bss)
    .bss                                     0x20005dca   Section      290  appcommunicate.o(.bss)
    STACK                                    0x20005ef0   Section     1024  startup_stm32f40_41xxx.o(STACK)

    Global Symbols

    Symbol Name                              Value     Ov Type        Size  Object(Section)

    BuildAttributes$$THM_ISAv4$E$P$D$K$B$S$7EM$VFPi3$EXTD16$VFPS$VFMA$PE$A:L22UL41UL21$X:L11$S22US41US21$IEEE1$IW$USESV6$~STKCKD$USESV7$~SHL$OSPACE$ROPI$EBA8$MICROLIB$REQ8$PRES8$EABIv2 0x00000000   Number         0  anon$$obj.o ABSOLUTE
    __ARM_use_no_argv                        0x00000000   Number         0  main.o ABSOLUTE
    _printf_a                                0x00000000   Number         0  stubs.o ABSOLUTE
    _printf_c                                0x00000000   Number         0  stubs.o ABSOLUTE
    _printf_charcount                        0x00000000   Number         0  stubs.o ABSOLUTE
    _printf_d                                0x00000000   Number         0  stubs.o ABSOLUTE
    _printf_e                                0x00000000   Number         0  stubs.o ABSOLUTE
    _printf_f                                0x00000000   Number         0  stubs.o ABSOLUTE
    _printf_flags                            0x00000000   Number         0  stubs.o ABSOLUTE
    _printf_fp_dec                           0x00000000   Number         0  stubs.o ABSOLUTE
    _printf_fp_hex                           0x00000000   Number         0  stubs.o ABSOLUTE
    _printf_g                                0x00000000   Number         0  stubs.o ABSOLUTE
    _printf_i                                0x00000000   Number         0  stubs.o ABSOLUTE
    _printf_int_dec                          0x00000000   Number         0  stubs.o ABSOLUTE
    _printf_l                                0x00000000   Number         0  stubs.o ABSOLUTE
    _printf_lc                               0x00000000   Number         0  stubs.o ABSOLUTE
    _printf_ll                               0x00000000   Number         0  stubs.o ABSOLUTE
    _printf_lld                              0x00000000   Number         0  stubs.o ABSOLUTE
    _printf_lli                              0x00000000   Number         0  stubs.o ABSOLUTE
    _printf_llo                              0x00000000   Number         0  stubs.o ABSOLUTE
    _printf_llu                              0x00000000   Number         0  stubs.o ABSOLUTE
    _printf_llx                              0x00000000   Number         0  stubs.o ABSOLUTE
    _printf_longlong_dec                     0x00000000   Number         0  stubs.o ABSOLUTE
    _printf_longlong_hex                     0x00000000   Number         0  stubs.o ABSOLUTE
    _printf_longlong_oct                     0x00000000   Number         0  stubs.o ABSOLUTE
    _printf_ls                               0x00000000   Number         0  stubs.o ABSOLUTE
    _printf_mbtowc                           0x00000000   Number         0  stubs.o ABSOLUTE
    _printf_n                                0x00000000   Number         0  stubs.o ABSOLUTE
    _printf_o                                0x00000000   Number         0  stubs.o ABSOLUTE
    _printf_p                                0x00000000   Number         0  stubs.o ABSOLUTE
    _printf_percent                          0x00000000   Number         0  stubs.o ABSOLUTE
    _printf_pre_padding                      0x00000000   Number         0  stubs.o ABSOLUTE
    _printf_return_value                     0x00000000   Number         0  stubs.o ABSOLUTE
    _printf_s                                0x00000000   Number         0  stubs.o ABSOLUTE
    _printf_sizespec                         0x00000000   Number         0  stubs.o ABSOLUTE
    _printf_str                              0x00000000   Number         0  stubs.o ABSOLUTE
    _printf_truncate_signed                  0x00000000   Number         0  stubs.o ABSOLUTE
    _printf_truncate_unsigned                0x00000000   Number         0  stubs.o ABSOLUTE
    _printf_u                                0x00000000   Number         0  stubs.o ABSOLUTE
    _printf_wc                               0x00000000   Number         0  stubs.o ABSOLUTE
    _printf_wctomb                           0x00000000   Number         0  stubs.o ABSOLUTE
    _printf_widthprec                        0x00000000   Number         0  stubs.o ABSOLUTE
    _printf_x                                0x00000000   Number         0  stubs.o ABSOLUTE
    __cpp_initialize__aeabi_                  - Undefined Weak Reference
    __cxa_finalize                            - Undefined Weak Reference
    _clock_init                               - Undefined Weak Reference
    _microlib_exit                            - Undefined Weak Reference
    __Vectors_Size                           0x00000188   Number         0  startup_stm32f40_41xxx.o ABSOLUTE
    __Vectors                                0x08000000   Data           4  startup_stm32f40_41xxx.o(RESET)
    __Vectors_End                            0x08000188   Data           0  startup_stm32f40_41xxx.o(RESET)
    __main                                   0x08000189   Thumb Code     0  entry.o(.ARM.Collect$$$$00000000)
    _main_stk                                0x08000189   Thumb Code     0  entry2.o(.ARM.Collect$$$$00000001)
    _main_scatterload                        0x0800018d   Thumb Code     0  entry5.o(.ARM.Collect$$$$00000004)
    __main_after_scatterload                 0x08000191   Thumb Code     0  entry5.o(.ARM.Collect$$$$00000004)
    _main_clock                              0x08000191   Thumb Code     0  entry7b.o(.ARM.Collect$$$$00000008)
    _main_cpp_init                           0x08000191   Thumb Code     0  entry8b.o(.ARM.Collect$$$$0000000A)
    _main_init                               0x08000191   Thumb Code     0  entry9a.o(.ARM.Collect$$$$0000000B)
    __rt_final_cpp                           0x08000199   Thumb Code     0  entry10a.o(.ARM.Collect$$$$0000000D)
    __rt_final_exit                          0x08000199   Thumb Code     0  entry11a.o(.ARM.Collect$$$$0000000F)
    Reset_Handler                            0x0800019d   Thumb Code     8  startup_stm32f40_41xxx.o(.text)
    ADC_IRQHandler                           0x080001b7   Thumb Code     0  startup_stm32f40_41xxx.o(.text)
    CAN1_RX1_IRQHandler                      0x080001b7   Thumb Code     0  startup_stm32f40_41xxx.o(.text)
    CAN1_SCE_IRQHandler                      0x080001b7   Thumb Code     0  startup_stm32f40_41xxx.o(.text)
    CAN1_TX_IRQHandler                       0x080001b7   Thumb Code     0  startup_stm32f40_41xxx.o(.text)
    CAN2_RX0_IRQHandler                      0x080001b7   Thumb Code     0  startup_stm32f40_41xxx.o(.text)
    CAN2_RX1_IRQHandler                      0x080001b7   Thumb Code     0  startup_stm32f40_41xxx.o(.text)
    CAN2_SCE_IRQHandler                      0x080001b7   Thumb Code     0  startup_stm32f40_41xxx.o(.text)
    CAN2_TX_IRQHandler                       0x080001b7   Thumb Code     0  startup_stm32f40_41xxx.o(.text)
    CRYP_IRQHandler                          0x080001b7   Thumb Code     0  startup_stm32f40_41xxx.o(.text)
    DCMI_IRQHandler                          0x080001b7   Thumb Code     0  startup_stm32f40_41xxx.o(.text)
    DMA1_Stream0_IRQHandler                  0x080001b7   Thumb Code     0  startup_stm32f40_41xxx.o(.text)
    DMA1_Stream1_IRQHandler                  0x080001b7   Thumb Code     0  startup_stm32f40_41xxx.o(.text)
    DMA1_Stream3_IRQHandler                  0x080001b7   Thumb Code     0  startup_stm32f40_41xxx.o(.text)
    DMA1_Stream4_IRQHandler                  0x080001b7   Thumb Code     0  startup_stm32f40_41xxx.o(.text)
    DMA1_Stream5_IRQHandler                  0x080001b7   Thumb Code     0  startup_stm32f40_41xxx.o(.text)
    DMA1_Stream6_IRQHandler                  0x080001b7   Thumb Code     0  startup_stm32f40_41xxx.o(.text)
    DMA1_Stream7_IRQHandler                  0x080001b7   Thumb Code     0  startup_stm32f40_41xxx.o(.text)
    DMA2_Stream0_IRQHandler                  0x080001b7   Thumb Code     0  startup_stm32f40_41xxx.o(.text)
    DMA2_Stream1_IRQHandler                  0x080001b7   Thumb Code     0  startup_stm32f40_41xxx.o(.text)
    DMA2_Stream2_IRQHandler                  0x080001b7   Thumb Code     0  startup_stm32f40_41xxx.o(.text)
    DMA2_Stream4_IRQHandler                  0x080001b7   Thumb Code     0  startup_stm32f40_41xxx.o(.text)
    DMA2_Stream5_IRQHandler                  0x080001b7   Thumb Code     0  startup_stm32f40_41xxx.o(.text)
    DMA2_Stream6_IRQHandler                  0x080001b7   Thumb Code     0  startup_stm32f40_41xxx.o(.text)
    DMA2_Stream7_IRQHandler                  0x080001b7   Thumb Code     0  startup_stm32f40_41xxx.o(.text)
    ETH_IRQHandler                           0x080001b7   Thumb Code     0  startup_stm32f40_41xxx.o(.text)
    ETH_WKUP_IRQHandler                      0x080001b7   Thumb Code     0  startup_stm32f40_41xxx.o(.text)
    EXTI0_IRQHandler                         0x080001b7   Thumb Code     0  startup_stm32f40_41xxx.o(.text)
    EXTI1_IRQHandler                         0x080001b7   Thumb Code     0  startup_stm32f40_41xxx.o(.text)
    EXTI2_IRQHandler                         0x080001b7   Thumb Code     0  startup_stm32f40_41xxx.o(.text)
    EXTI3_IRQHandler                         0x080001b7   Thumb Code     0  startup_stm32f40_41xxx.o(.text)
    EXTI4_IRQHandler                         0x080001b7   Thumb Code     0  startup_stm32f40_41xxx.o(.text)
    FLASH_IRQHandler                         0x080001b7   Thumb Code     0  startup_stm32f40_41xxx.o(.text)
    FPU_IRQHandler                           0x080001b7   Thumb Code     0  startup_stm32f40_41xxx.o(.text)
    FSMC_IRQHandler                          0x080001b7   Thumb Code     0  startup_stm32f40_41xxx.o(.text)
    HASH_RNG_IRQHandler                      0x080001b7   Thumb Code     0  startup_stm32f40_41xxx.o(.text)
    I2C1_ER_IRQHandler                       0x080001b7   Thumb Code     0  startup_stm32f40_41xxx.o(.text)
    I2C1_EV_IRQHandler                       0x080001b7   Thumb Code     0  startup_stm32f40_41xxx.o(.text)
    I2C2_ER_IRQHandler                       0x080001b7   Thumb Code     0  startup_stm32f40_41xxx.o(.text)
    I2C2_EV_IRQHandler                       0x080001b7   Thumb Code     0  startup_stm32f40_41xxx.o(.text)
    I2C3_ER_IRQHandler                       0x080001b7   Thumb Code     0  startup_stm32f40_41xxx.o(.text)
    I2C3_EV_IRQHandler                       0x080001b7   Thumb Code     0  startup_stm32f40_41xxx.o(.text)
    OTG_FS_IRQHandler                        0x080001b7   Thumb Code     0  startup_stm32f40_41xxx.o(.text)
    OTG_FS_WKUP_IRQHandler                   0x080001b7   Thumb Code     0  startup_stm32f40_41xxx.o(.text)
    OTG_HS_EP1_IN_IRQHandler                 0x080001b7   Thumb Code     0  startup_stm32f40_41xxx.o(.text)
    OTG_HS_EP1_OUT_IRQHandler                0x080001b7   Thumb Code     0  startup_stm32f40_41xxx.o(.text)
    OTG_HS_IRQHandler                        0x080001b7   Thumb Code     0  startup_stm32f40_41xxx.o(.text)
    OTG_HS_WKUP_IRQHandler                   0x080001b7   Thumb Code     0  startup_stm32f40_41xxx.o(.text)
    PVD_IRQHandler                           0x080001b7   Thumb Code     0  startup_stm32f40_41xxx.o(.text)
    RCC_IRQHandler                           0x080001b7   Thumb Code     0  startup_stm32f40_41xxx.o(.text)
    RTC_Alarm_IRQHandler                     0x080001b7   Thumb Code     0  startup_stm32f40_41xxx.o(.text)
    RTC_WKUP_IRQHandler                      0x080001b7   Thumb Code     0  startup_stm32f40_41xxx.o(.text)
    SPI1_IRQHandler                          0x080001b7   Thumb Code     0  startup_stm32f40_41xxx.o(.text)
    SPI2_IRQHandler                          0x080001b7   Thumb Code     0  startup_stm32f40_41xxx.o(.text)
    SPI3_IRQHandler                          0x080001b7   Thumb Code     0  startup_stm32f40_41xxx.o(.text)
    TAMP_STAMP_IRQHandler                    0x080001b7   Thumb Code     0  startup_stm32f40_41xxx.o(.text)
    TIM1_BRK_TIM9_IRQHandler                 0x080001b7   Thumb Code     0  startup_stm32f40_41xxx.o(.text)
    TIM1_TRG_COM_TIM11_IRQHandler            0x080001b7   Thumb Code     0  startup_stm32f40_41xxx.o(.text)
    TIM1_UP_TIM10_IRQHandler                 0x080001b7   Thumb Code     0  startup_stm32f40_41xxx.o(.text)
    TIM5_IRQHandler                          0x080001b7   Thumb Code     0  startup_stm32f40_41xxx.o(.text)
    TIM6_DAC_IRQHandler                      0x080001b7   Thumb Code     0  startup_stm32f40_41xxx.o(.text)
    TIM7_IRQHandler                          0x080001b7   Thumb Code     0  startup_stm32f40_41xxx.o(.text)
    TIM8_BRK_TIM12_IRQHandler                0x080001b7   Thumb Code     0  startup_stm32f40_41xxx.o(.text)
    TIM8_CC_IRQHandler                       0x080001b7   Thumb Code     0  startup_stm32f40_41xxx.o(.text)
    TIM8_TRG_COM_TIM14_IRQHandler            0x080001b7   Thumb Code     0  startup_stm32f40_41xxx.o(.text)
    TIM8_UP_TIM13_IRQHandler                 0x080001b7   Thumb Code     0  startup_stm32f40_41xxx.o(.text)
    UART5_IRQHandler                         0x080001b7   Thumb Code     0  startup_stm32f40_41xxx.o(.text)
    USART1_IRQHandler                        0x080001b7   Thumb Code     0  startup_stm32f40_41xxx.o(.text)
    USART6_IRQHandler                        0x080001b7   Thumb Code     0  startup_stm32f40_41xxx.o(.text)
    WWDG_IRQHandler                          0x080001b7   Thumb Code     0  startup_stm32f40_41xxx.o(.text)
    CPU_IntDis                               0x080001c1   Thumb Code     0  cpu_a.o(.text)
    CPU_IntEn                                0x080001c5   Thumb Code     0  cpu_a.o(.text)
    CPU_SR_Save                              0x080001c9   Thumb Code     0  cpu_a.o(.text)
    CPU_SR_Restore                           0x080001d1   Thumb Code     0  cpu_a.o(.text)
    CPU_WaitForInt                           0x080001d7   Thumb Code     0  cpu_a.o(.text)
    CPU_WaitForExcept                        0x080001db   Thumb Code     0  cpu_a.o(.text)
    CPU_CntLeadZeros                         0x080001df   Thumb Code     0  cpu_a.o(.text)
    CPU_CntTrailZeros                        0x080001e5   Thumb Code     0  cpu_a.o(.text)
    CPU_RevBits                              0x080001ef   Thumb Code     0  cpu_a.o(.text)
    __aeabi_uldivmod                         0x080001f5   Thumb Code    98  uldiv.o(.text)
    __aeabi_f2d                              0x08000257   Thumb Code    38  f2d.o(.text)
    __aeabi_uidiv                            0x0800027d   Thumb Code     0  uidiv.o(.text)
    __aeabi_uidivmod                         0x0800027d   Thumb Code    44  uidiv.o(.text)
    __aeabi_llsl                             0x080002a9   Thumb Code    30  llshl.o(.text)
    _ll_shift_l                              0x080002a9   Thumb Code     0  llshl.o(.text)
    __aeabi_llsr                             0x080002c7   Thumb Code    32  llushr.o(.text)
    _ll_ushift_r                             0x080002c7   Thumb Code     0  llushr.o(.text)
    __I$use$fp                               0x080002e7   Thumb Code     0  iusefp.o(.text)
    __aeabi_dadd                             0x080002e7   Thumb Code   322  dadd.o(.text)
    __aeabi_dsub                             0x08000429   Thumb Code     6  dadd.o(.text)
    __aeabi_drsub                            0x0800042f   Thumb Code     6  dadd.o(.text)
    __aeabi_dmul                             0x08000435   Thumb Code   228  dmul.o(.text)
    __aeabi_ddiv                             0x08000519   Thumb Code   222  ddiv.o(.text)
    __aeabi_d2ulz                            0x080005f7   Thumb Code    48  dfixul.o(.text)
    __aeabi_cdrcmple                         0x08000629   Thumb Code    48  cdrcmple.o(.text)
    __scatterload                            0x08000659   Thumb Code    28  init.o(.text)
    __scatterload_rt2                        0x08000659   Thumb Code     0  init.o(.text)
    __aeabi_lasr                             0x0800067d   Thumb Code    36  llsshr.o(.text)
    _ll_sshift_r                             0x0800067d   Thumb Code     0  llsshr.o(.text)
    _double_round                            0x080006a1   Thumb Code    30  depilogue.o(.text)
    _double_epilogue                         0x080006bf   Thumb Code   156  depilogue.o(.text)
    __decompress                             0x0800075b   Thumb Code     0  __dczerorl2.o(.text)
    __decompress1                            0x0800075b   Thumb Code    86  __dczerorl2.o(.text)
    OS_CPU_FP_Reg_Push                       0x080007b1   Thumb Code     0  os_cpu_a.o(CODE)
    OS_CPU_FP_Reg_Pop                        0x080007cb   Thumb Code     0  os_cpu_a.o(CODE)
    OSStartHighRdy                           0x080007dd   Thumb Code     0  os_cpu_a.o(CODE)
    OSCtxSw                                  0x080007ff   Thumb Code     0  os_cpu_a.o(CODE)
    OSIntCtxSw                               0x08000809   Thumb Code     0  os_cpu_a.o(CODE)
    OS_CPU_PendSVHandler                     0x08000813   Thumb Code     0  os_cpu_a.o(CODE)
    BSP_CPU_ClkFreq                          0x08000885   Thumb Code    14  bsp.o(i.BSP_CPU_ClkFreq)
    BSP_init                                 0x08000b6f   Thumb Code    52  bsp.o(i.BSP_init)
    Bsp_sdioInit                             0x08000f25   Thumb Code   198  sdio_tf.o(i.Bsp_sdioInit)
    BusFault_Handler                         0x08001039   Thumb Code     4  stm32f4xx_it.o(i.BusFault_Handler)
    CAN1_RX0_IRQHandler                      0x0800103d   Thumb Code    14  stm32f4xx_it.o(i.CAN1_RX0_IRQHandler)
    CAN_DeInit                               0x08001055   Thumb Code    50  stm32f4xx_can.o(i.CAN_DeInit)
    CAN_FilterInit                           0x0800108d   Thumb Code   258  stm32f4xx_can.o(i.CAN_FilterInit)
    CAN_Init                                 0x08001195   Thumb Code   276  stm32f4xx_can.o(i.CAN_Init)
    CAN_Receive                              0x080012a9   Thumb Code   240  stm32f4xx_can.o(i.CAN_Receive)
    CPU_Init                                 0x08001399   Thumb Code    16  cpu_core.o(i.CPU_Init)
    CPU_IntDisMeasMaxCurGet                  0x08001449   Thumb Code    40  cpu_core.o(i.CPU_IntDisMeasMaxCurGet)
    CPU_IntDisMeasMaxCurReset                0x08001475   Thumb Code    40  cpu_core.o(i.CPU_IntDisMeasMaxCurReset)
    CPU_IntDisMeasMaxGet                     0x080014a1   Thumb Code    40  cpu_core.o(i.CPU_IntDisMeasMaxGet)
    CPU_IntDisMeasStart                      0x080014cd   Thumb Code    38  cpu_core.o(i.CPU_IntDisMeasStart)
    CPU_IntDisMeasStop                       0x08001501   Thumb Code    62  cpu_core.o(i.CPU_IntDisMeasStop)
    CPU_NameClr                              0x08001555   Thumb Code    50  cpu_core.o(i.CPU_NameClr)
    CPU_TS_TmrFreqSet                        0x080015a9   Thumb Code     6  cpu_core.o(i.CPU_TS_TmrFreqSet)
    CPU_TS_TmrInit                           0x080015b5   Thumb Code    44  bsp.o(i.CPU_TS_TmrInit)
    CPU_TS_TmrRd                             0x080015e9   Thumb Code     6  bsp.o(i.CPU_TS_TmrRd)
    DMA1_Stream2_IRQHandler                  0x08001729   Thumb Code    22  stm32f4xx_it.o(i.DMA1_Stream2_IRQHandler)
    DMA2_Stream3_IRQHandler                  0x08001749   Thumb Code    54  stm32f4xx_it.o(i.DMA2_Stream3_IRQHandler)
    DMA_ClearFlag                            0x08001781   Thumb Code    38  stm32f4xx_dma.o(i.DMA_ClearFlag)
    DMA_ClearITPendingBit                    0x080017b5   Thumb Code    38  stm32f4xx_dma.o(i.DMA_ClearITPendingBit)
    DMA_Cmd                                  0x080017e9   Thumb Code    22  stm32f4xx_dma.o(i.DMA_Cmd)
    DMA_DeInit                               0x08001801   Thumb Code   324  stm32f4xx_dma.o(i.DMA_DeInit)
    DMA_FlowControllerConfig                 0x08001959   Thumb Code    22  stm32f4xx_dma.o(i.DMA_FlowControllerConfig)
    DMA_GetITStatus                          0x08001971   Thumb Code    82  stm32f4xx_dma.o(i.DMA_GetITStatus)
    DMA_ITConfig                             0x080019d5   Thumb Code    58  stm32f4xx_dma.o(i.DMA_ITConfig)
    DMA_Init                                 0x08001a11   Thumb Code    82  stm32f4xx_dma.o(i.DMA_Init)
    DebugMon_Handler                         0x08001a69   Thumb Code     2  stm32f4xx_it.o(i.DebugMon_Handler)
    EXTI15_10_IRQHandler                     0x08001a6b   Thumb Code    22  stm32f4xx_it.o(i.EXTI15_10_IRQHandler)
    EXTI9_5_IRQHandler                       0x08001a81   Thumb Code    36  stm32f4xx_it.o(i.EXTI9_5_IRQHandler)
    EXTI_ClearITPendingBit                   0x08001aa5   Thumb Code     6  stm32f4xx_exti.o(i.EXTI_ClearITPendingBit)
    EXTI_GetITStatus                         0x08001ab1   Thumb Code    20  stm32f4xx_exti.o(i.EXTI_GetITStatus)
    GPIO_Init                                0x08001c5d   Thumb Code   144  stm32f4xx_gpio.o(i.GPIO_Init)
    GPIO_PinAFConfig                         0x08001ced   Thumb Code    70  stm32f4xx_gpio.o(i.GPIO_PinAFConfig)
    HardFault_Handler                        0x08001d33   Thumb Code     4  stm32f4xx_it.o(i.HardFault_Handler)
    MemManage_Handler                        0x08001d37   Thumb Code     4  stm32f4xx_it.o(i.MemManage_Handler)
    Mem_Clr                                  0x08001d3b   Thumb Code    18  lib_mem.o(i.Mem_Clr)
    Mem_Set                                  0x08001d4d   Thumb Code    84  lib_mem.o(i.Mem_Set)
    NMI_Handler                              0x08001da1   Thumb Code     2  stm32f4xx_it.o(i.NMI_Handler)
    NVIC_Init                                0x08001da5   Thumb Code   106  misc.o(i.NVIC_Init)
    NVIC_PriorityGroupConfig                 0x08001e1d   Thumb Code    10  misc.o(i.NVIC_PriorityGroupConfig)
    OSCfg_Init                               0x08001e31   Thumb Code     2  os_cfg_app.o(i.OSCfg_Init)
    OSIdleTaskHook                           0x08001e35   Thumb Code    16  os_cpu_c.o(i.OSIdleTaskHook)
    OSInit                                   0x08001e49   Thumb Code   258  os_core.o(i.OSInit)
    OSInitHook                               0x08001f95   Thumb Code    28  os_cpu_c.o(i.OSInitHook)
    OSIntEnter                               0x08001fbd   Thumb Code    34  os_core.o(i.OSIntEnter)
    OSIntExit                                0x08001fe9   Thumb Code   188  os_core.o(i.OSIntExit)
    OSMemCreate                              0x080020c5   Thumb Code   146  os_mem.o(i.OSMemCreate)
    OSMemGet                                 0x08002161   Thumb Code   100  os_mem.o(i.OSMemGet)
    OSMemPut                                 0x080021c5   Thumb Code   104  os_mem.o(i.OSMemPut)
    OSMutexCreate                            0x0800222d   Thumb Code    98  os_mutex.o(i.OSMutexCreate)
    OSMutexPend                              0x08002299   Thumb Code   480  os_mutex.o(i.OSMutexPend)
    OSMutexPost                              0x08002485   Thumb Code   366  os_mutex.o(i.OSMutexPost)
    OSSched                                  0x08002601   Thumb Code   134  os_core.o(i.OSSched)
    OSSchedLock                              0x080026a5   Thumb Code    92  os_core.o(i.OSSchedLock)
    OSSchedUnlock                            0x08002709   Thumb Code   128  os_core.o(i.OSSchedUnlock)
    OSSemCreate                              0x08002791   Thumb Code    96  os_sem.o(i.OSSemCreate)
    OSSemPend                                0x080027f9   Thumb Code   378  os_sem.o(i.OSSemPend)
    OSSemPost                                0x08002981   Thumb Code    54  os_sem.o(i.OSSemPost)
    OSStart                                  0x080029bd   Thumb Code    78  os_core.o(i.OSStart)
    OSStatReset                              0x08002a25   Thumb Code   294  os_stat.o(i.OSStatReset)
    OSStatTaskCPUUsageInit                   0x08002b6d   Thumb Code   228  os_stat.o(i.OSStatTaskCPUUsageInit)
    OSStatTaskHook                           0x08002c6d   Thumb Code    16  os_cpu_c.o(i.OSStatTaskHook)
    OSTaskChangePrio                         0x08002c81   Thumb Code   156  os_task.o(i.OSTaskChangePrio)
    OSTaskCreate                             0x08002d21   Thumb Code   312  os_task.o(i.OSTaskCreate)
    OSTaskCreateHook                         0x08002e65   Thumb Code    20  os_cpu_c.o(i.OSTaskCreateHook)
    OSTaskQPend                              0x08002e7d   Thumb Code   430  os_task.o(i.OSTaskQPend)
    OSTaskQPost                              0x08003035   Thumb Code    42  os_task.o(i.OSTaskQPost)
    OSTaskResume                             0x0800305f   Thumb Code    54  os_task.o(i.OSTaskResume)
    OSTaskReturnHook                         0x08003095   Thumb Code    20  os_cpu_c.o(i.OSTaskReturnHook)
    OSTaskSemPend                            0x080030ad   Thumb Code   448  os_task.o(i.OSTaskSemPend)
    OSTaskSemPost                            0x08003275   Thumb Code    36  os_task.o(i.OSTaskSemPost)
    OSTaskStkChk                             0x08003299   Thumb Code   184  os_task.o(i.OSTaskStkChk)
    OSTaskStkInit                            0x08003355   Thumb Code   204  os_cpu_c.o(i.OSTaskStkInit)
    OSTaskSuspend                            0x08003425   Thumb Code    32  os_task.o(i.OSTaskSuspend)
    OSTaskSwHook                             0x08003449   Thumb Code   160  os_cpu_c.o(i.OSTaskSwHook)
    OSTimeDly                                0x080034f5   Thumb Code   168  os_time.o(i.OSTimeDly)
    OSTimeDlyHMSM                            0x080035a5   Thumb Code   262  os_time.o(i.OSTimeDlyHMSM)
    OSTimeTick                               0x080036b9   Thumb Code    50  os_time.o(i.OSTimeTick)
    OSTimeTickHook                           0x080036fd   Thumb Code    16  os_cpu_c.o(i.OSTimeTickHook)
    OS_CPU_SysTickHandler                    0x08003711   Thumb Code    60  os_cpu_c.o(i.OS_CPU_SysTickHandler)
    OS_CPU_SysTickInit                       0x08003751   Thumb Code    44  os_cpu_c.o(i.OS_CPU_SysTickInit)
    OS_Dbg_Init                              0x08003781   Thumb Code   146  os_dbg.o(i.OS_Dbg_Init)
    OS_FlagInit                              0x08003929   Thumb Code    14  os_flag.o(i.OS_FlagInit)
    OS_IdleTask                              0x08003941   Thumb Code    66  os_core.o(i.OS_IdleTask)
    OS_IdleTaskInit                          0x0800398d   Thumb Code    66  os_core.o(i.OS_IdleTaskInit)
    OS_MemDbgListAdd                         0x080039fd   Thumb Code    34  os_mem.o(i.OS_MemDbgListAdd)
    OS_MemInit                               0x08003a25   Thumb Code    14  os_mem.o(i.OS_MemInit)
    OS_MsgPoolInit                           0x08003a3d   Thumb Code    80  os_msg.o(i.OS_MsgPoolInit)
    OS_MsgQGet                               0x08003a99   Thumb Code    98  os_msg.o(i.OS_MsgQGet)
    OS_MsgQInit                              0x08003b01   Thumb Code    14  os_msg.o(i.OS_MsgQInit)
    OS_MsgQPut                               0x08003b11   Thumb Code   254  os_msg.o(i.OS_MsgQPut)
    OS_MutexDbgListAdd                       0x08003c15   Thumb Code    38  os_mutex.o(i.OS_MutexDbgListAdd)
    OS_MutexGrpAdd                           0x08003c45   Thumb Code     8  os_mutex.o(i.OS_MutexGrpAdd)
    OS_MutexGrpPrioFindHighest               0x08003c4d   Thumb Code    44  os_mutex.o(i.OS_MutexGrpPrioFindHighest)
    OS_MutexGrpRemove                        0x08003c79   Thumb Code    28  os_mutex.o(i.OS_MutexGrpRemove)
    OS_MutexInit                             0x08003c95   Thumb Code    14  os_mutex.o(i.OS_MutexInit)
    OS_Pend                                  0x08003cad   Thumb Code   100  os_core.o(i.OS_Pend)
    OS_PendDataInit                          0x08003d15   Thumb Code    40  os_core.o(i.OS_PendDataInit)
    OS_PendDbgNameAdd                        0x08003d3d   Thumb Code    66  os_core.o(i.OS_PendDbgNameAdd)
    OS_PendDbgNameRemove                     0x08003d99   Thumb Code    30  os_core.o(i.OS_PendDbgNameRemove)
    OS_PendListChangePrio                    0x08003dbd   Thumb Code    58  os_core.o(i.OS_PendListChangePrio)
    OS_PendListInit                          0x08003df7   Thumb Code    10  os_core.o(i.OS_PendListInit)
    OS_PendListInsertPrio                    0x08003e01   Thumb Code   102  os_core.o(i.OS_PendListInsertPrio)
    OS_PendListRemove                        0x08003e67   Thumb Code    52  os_core.o(i.OS_PendListRemove)
    OS_PendListRemove1                       0x08003e9b   Thumb Code    66  os_core.o(i.OS_PendListRemove1)
    OS_Post                                  0x08003edd   Thumb Code   214  os_core.o(i.OS_Post)
    OS_Post1                                 0x08003fb3   Thumb Code    44  os_core.o(i.OS_Post1)
    OS_PrioGetHighest                        0x08003fe1   Thumb Code    36  os_prio.o(i.OS_PrioGetHighest)
    OS_PrioInit                              0x08004009   Thumb Code    20  os_prio.o(i.OS_PrioInit)
    OS_PrioInsert                            0x08004021   Thumb Code    32  os_prio.o(i.OS_PrioInsert)
    OS_PrioRemove                            0x08004045   Thumb Code    32  os_prio.o(i.OS_PrioRemove)
    OS_QInit                                 0x08004069   Thumb Code    14  os_q.o(i.OS_QInit)
    OS_RdyListInit                           0x08004081   Thumb Code    32  os_core.o(i.OS_RdyListInit)
    OS_RdyListInsert                         0x080040a5   Thumb Code    40  os_core.o(i.OS_RdyListInsert)
    OS_RdyListInsertHead                     0x080040d1   Thumb Code    58  os_core.o(i.OS_RdyListInsertHead)
    OS_RdyListInsertTail                     0x08004111   Thumb Code    56  os_core.o(i.OS_RdyListInsertTail)
    OS_RdyListRemove                         0x0800414d   Thumb Code    86  os_core.o(i.OS_RdyListRemove)
    OS_SemDbgListAdd                         0x080041a9   Thumb Code    38  os_sem.o(i.OS_SemDbgListAdd)
    OS_SemInit                               0x080041d9   Thumb Code    14  os_sem.o(i.OS_SemInit)
    OS_SemPost                               0x080041f1   Thumb Code   318  os_sem.o(i.OS_SemPost)
    OS_StatTask                              0x08004331   Thumb Code   738  os_stat.o(i.OS_StatTask)
    OS_StatTaskInit                          0x08004655   Thumb Code   136  os_stat.o(i.OS_StatTaskInit)
    OS_TaskBlock                             0x08004721   Thumb Code    40  os_core.o(i.OS_TaskBlock)
    OS_TaskChangePrio                        0x0800474d   Thumb Code   232  os_task.o(i.OS_TaskChangePrio)
    OS_TaskDbgListAdd                        0x08004839   Thumb Code    42  os_task.o(i.OS_TaskDbgListAdd)
    OS_TaskInit                              0x08004869   Thumb Code    18  os_task.o(i.OS_TaskInit)
    OS_TaskInitTCB                           0x08004889   Thumb Code   182  os_task.o(i.OS_TaskInitTCB)
    OS_TaskQPost                             0x0800494d   Thumb Code   240  os_task.o(i.OS_TaskQPost)
    OS_TaskResume                            0x08004a41   Thumb Code   284  os_task.o(i.OS_TaskResume)
    OS_TaskReturn                            0x08004b5d   Thumb Code    26  os_task.o(i.OS_TaskReturn)
    OS_TaskSemPost                           0x08004b81   Thumb Code   492  os_task.o(i.OS_TaskSemPost)
    OS_TaskSuspend                           0x08004d71   Thumb Code   304  os_task.o(i.OS_TaskSuspend)
    OS_TickListInsert                        0x08004ea9   Thumb Code   134  os_tick.o(i.OS_TickListInsert)
    OS_TickListInsertDly                     0x08004f31   Thumb Code   180  os_tick.o(i.OS_TickListInsertDly)
    OS_TickListRemove                        0x08004fed   Thumb Code    88  os_tick.o(i.OS_TickListRemove)
    OS_TickTask                              0x08005201   Thumb Code    98  os_tick.o(i.OS_TickTask)
    OS_TickTaskInit                          0x0800526d   Thumb Code   140  os_tick.o(i.OS_TickTaskInit)
    OS_TmrInit                               0x08005335   Thumb Code   200  os_tmr.o(i.OS_TmrInit)
    OS_TmrTask                               0x08005481   Thumb Code   134  os_tmr.o(i.OS_TmrTask)
    OS_TmrUnlink                             0x08005515   Thumb Code    58  os_tmr.o(i.OS_TmrUnlink)
    RCC_AHB1PeriphClockCmd                   0x0800556d   Thumb Code    26  stm32f4xx_rcc.o(i.RCC_AHB1PeriphClockCmd)
    RCC_APB1PeriphClockCmd                   0x0800558d   Thumb Code    26  stm32f4xx_rcc.o(i.RCC_APB1PeriphClockCmd)
    RCC_APB1PeriphResetCmd                   0x080055ad   Thumb Code    26  stm32f4xx_rcc.o(i.RCC_APB1PeriphResetCmd)
    RCC_APB2PeriphClockCmd                   0x080055cd   Thumb Code    26  stm32f4xx_rcc.o(i.RCC_APB2PeriphClockCmd)
    RCC_APB2PeriphResetCmd                   0x080055ed   Thumb Code    26  stm32f4xx_rcc.o(i.RCC_APB2PeriphResetCmd)
    RCC_GetClocksFreq                        0x0800560d   Thumb Code   214  stm32f4xx_rcc.o(i.RCC_GetClocksFreq)
    SDIO_ClearFlag                           0x080056f5   Thumb Code     6  stm32f4xx_sdio.o(i.SDIO_ClearFlag)
    SDIO_ClearITPendingBit                   0x08005701   Thumb Code     6  stm32f4xx_sdio.o(i.SDIO_ClearITPendingBit)
    SDIO_ClockCmd                            0x0800570d   Thumb Code     6  stm32f4xx_sdio.o(i.SDIO_ClockCmd)
    SDIO_DMACmd                              0x08005719   Thumb Code     6  stm32f4xx_sdio.o(i.SDIO_DMACmd)
    SDIO_DataConfig                          0x08005725   Thumb Code    46  stm32f4xx_sdio.o(i.SDIO_DataConfig)
    SDIO_DeInit                              0x08005759   Thumb Code    22  stm32f4xx_sdio.o(i.SDIO_DeInit)
    SDIO_GetCommandResponse                  0x08005771   Thumb Code     8  stm32f4xx_sdio.o(i.SDIO_GetCommandResponse)
    SDIO_GetFlagStatus                       0x0800577d   Thumb Code    20  stm32f4xx_sdio.o(i.SDIO_GetFlagStatus)
    SDIO_GetITStatus                         0x08005795   Thumb Code    20  stm32f4xx_sdio.o(i.SDIO_GetITStatus)
    SDIO_GetPowerState                       0x080057ad   Thumb Code    10  stm32f4xx_sdio.o(i.SDIO_GetPowerState)
    SDIO_GetResponse                         0x080057bd   Thumb Code    20  stm32f4xx_sdio.o(i.SDIO_GetResponse)
    SDIO_IRQHandler                          0x080057d5   Thumb Code    54  stm32f4xx_it.o(i.SDIO_IRQHandler)
    SDIO_ITConfig                            0x0800580d   Thumb Code    26  stm32f4xx_sdio.o(i.SDIO_ITConfig)
    SDIO_Init                                0x0800582d   Thumb Code    42  stm32f4xx_sdio.o(i.SDIO_Init)
    SDIO_ReadData                            0x0800585d   Thumb Code     6  stm32f4xx_sdio.o(i.SDIO_ReadData)
    SDIO_SendCommand                         0x08005869   Thumb Code    40  stm32f4xx_sdio.o(i.SDIO_SendCommand)
    SDIO_SetPowerState                       0x08005895   Thumb Code     6  stm32f4xx_sdio.o(i.SDIO_SetPowerState)
    SD_Detect                                0x080058a1   Thumb Code     8  sdio_tf.o(i.SD_Detect)
    SD_GetState                              0x080058a9   Thumb Code    38  sdio_tf.o(i.SD_GetState)
    SD_GetStatus                             0x080058cf   Thumb Code    30  sdio_tf.o(i.SD_GetStatus)
    SD_InitializeCards                       0x080058ed   Thumb Code   294  sdio_tf.o(i.SD_InitializeCards)
    SD_LowLevel_DMA_RxConfig                 0x08005a29   Thumb Code   132  sdio_tf.o(i.SD_LowLevel_DMA_RxConfig)
    SD_LowLevel_DMA_TxConfig                 0x08005ab5   Thumb Code   134  sdio_tf.o(i.SD_LowLevel_DMA_TxConfig)
    SD_ProcessDMAIRQ                         0x08005b45   Thumb Code    62  sdio_tf.o(i.SD_ProcessDMAIRQ)
    SD_ProcessIRQSrc                         0x08005b99   Thumb Code   162  sdio_tf.o(i.SD_ProcessIRQSrc)
    SD_ReadBlock                             0x08005c45   Thumb Code   210  sdio_tf.o(i.SD_ReadBlock)
    SD_ReadMultiBlocks                       0x08005d35   Thumb Code   220  sdio_tf.o(i.SD_ReadMultiBlocks)
    SD_SendStatus                            0x08005e2d   Thumb Code    74  sdio_tf.o(i.SD_SendStatus)
    SD_StopTransfer                          0x08005e81   Thumb Code    46  sdio_tf.o(i.SD_StopTransfer)
    SD_WaitReadOperation                     0x08005eb5   Thumb Code   124  sdio_tf.o(i.SD_WaitReadOperation)
    SD_WaitWriteOperation                    0x08005f49   Thumb Code   124  sdio_tf.o(i.SD_WaitWriteOperation)
    SD_WriteBlock                            0x08005fdd   Thumb Code   208  sdio_tf.o(i.SD_WriteBlock)
    SD_WriteMultiBlocks                      0x080060c9   Thumb Code   312  sdio_tf.o(i.SD_WriteMultiBlocks)
    SD_enableWideBusOperation                0x08006221   Thumb Code   136  sdio_tf.o(i.SD_enableWideBusOperation)
    SD_getCardInfo                           0x080062b1   Thumb Code   780  sdio_tf.o(i.SD_getCardInfo)
    SD_powerOn                               0x080065cd   Thumb Code   420  sdio_tf.o(i.SD_powerOn)
    SD_selectDeselect                        0x080067a1   Thumb Code    50  sdio_tf.o(i.SD_selectDeselect)
    SPI_Cmd                                  0x080067d9   Thumb Code    24  stm32f4xx_spi.o(i.SPI_Cmd)
    SPI_I2S_GetFlagStatus                    0x080067f1   Thumb Code    18  stm32f4xx_spi.o(i.SPI_I2S_GetFlagStatus)
    SPI_I2S_ReceiveData                      0x08006803   Thumb Code     6  stm32f4xx_spi.o(i.SPI_I2S_ReceiveData)
    SPI_I2S_SendData                         0x08006809   Thumb Code     4  stm32f4xx_spi.o(i.SPI_I2S_SendData)
    SPI_Init                                 0x0800680d   Thumb Code    60  stm32f4xx_spi.o(i.SPI_Init)
    SVC_Handler                              0x08006849   Thumb Code     2  stm32f4xx_it.o(i.SVC_Handler)
    SystemInit                               0x08006939   Thumb Code    88  system_stm32f4xx.o(i.SystemInit)
    TIM1_CC_IRQHandler                       0x08006ac5   Thumb Code    24  stm32f4xx_it.o(i.TIM1_CC_IRQHandler)
    TIM2_IRQHandler                          0x08006ae1   Thumb Code    24  stm32f4xx_it.o(i.TIM2_IRQHandler)
    TIM3_IRQHandler                          0x08006af9   Thumb Code    82  stm32f4xx_it.o(i.TIM3_IRQHandler)
    TIM4_IRQHandler                          0x08006b5d   Thumb Code   208  stm32f4xx_it.o(i.TIM4_IRQHandler)
    TIM_ARRPreloadConfig                     0x08006c45   Thumb Code    24  stm32f4xx_tim.o(i.TIM_ARRPreloadConfig)
    TIM_ClearITPendingBit                    0x08006c5d   Thumb Code     6  stm32f4xx_tim.o(i.TIM_ClearITPendingBit)
    TIM_Cmd                                  0x08006c63   Thumb Code    24  stm32f4xx_tim.o(i.TIM_Cmd)
    TIM_GetCapture4                          0x08006c7b   Thumb Code     6  stm32f4xx_tim.o(i.TIM_GetCapture4)
    TIM_GetITStatus                          0x08006c81   Thumb Code    34  stm32f4xx_tim.o(i.TIM_GetITStatus)
    TIM_ICInit                               0x08006ca3   Thumb Code   110  stm32f4xx_tim.o(i.TIM_ICInit)
    TIM_ITConfig                             0x08006d11   Thumb Code    18  stm32f4xx_tim.o(i.TIM_ITConfig)
    TIM_OC1Init                              0x08006d25   Thumb Code   114  stm32f4xx_tim.o(i.TIM_OC1Init)
    TIM_OC1PreloadConfig                     0x08006da1   Thumb Code    18  stm32f4xx_tim.o(i.TIM_OC1PreloadConfig)
    TIM_OC2Init                              0x08006db5   Thumb Code   154  stm32f4xx_tim.o(i.TIM_OC2Init)
    TIM_OC3Init                              0x08006e59   Thumb Code   150  stm32f4xx_tim.o(i.TIM_OC3Init)
    TIM_OC4Init                              0x08006ef9   Thumb Code   112  stm32f4xx_tim.o(i.TIM_OC4Init)
    TIM_SetCompare1                          0x08006f71   Thumb Code     4  stm32f4xx_tim.o(i.TIM_SetCompare1)
    TIM_SetCompare2                          0x08006f75   Thumb Code     4  stm32f4xx_tim.o(i.TIM_SetCompare2)
    TIM_SetCompare3                          0x08006f79   Thumb Code     4  stm32f4xx_tim.o(i.TIM_SetCompare3)
    TIM_SetCompare4                          0x08006f7d   Thumb Code     4  stm32f4xx_tim.o(i.TIM_SetCompare4)
    TIM_SetIC1Prescaler                      0x08006f81   Thumb Code    18  stm32f4xx_tim.o(i.TIM_SetIC1Prescaler)
    TIM_SetIC2Prescaler                      0x08006f93   Thumb Code    26  stm32f4xx_tim.o(i.TIM_SetIC2Prescaler)
    TIM_SetIC3Prescaler                      0x08006fad   Thumb Code    18  stm32f4xx_tim.o(i.TIM_SetIC3Prescaler)
    TIM_SetIC4Prescaler                      0x08006fbf   Thumb Code    26  stm32f4xx_tim.o(i.TIM_SetIC4Prescaler)
    TIM_TimeBaseInit                         0x08006fd9   Thumb Code   104  stm32f4xx_tim.o(i.TIM_TimeBaseInit)
    UART4_IRQHandler                         0x0800705d   Thumb Code   572  stm32f4xx_it.o(i.UART4_IRQHandler)
    USART2_IRQHandler                        0x080072bd   Thumb Code   274  stm32f4xx_it.o(i.USART2_IRQHandler)
    USART3_IRQHandler                        0x080073ed   Thumb Code   244  stm32f4xx_it.o(i.USART3_IRQHandler)
    USART_ClearITPendingBit                  0x08007505   Thumb Code    30  stm32f4xx_usart.o(i.USART_ClearITPendingBit)
    USART_Cmd                                0x08007523   Thumb Code    24  stm32f4xx_usart.o(i.USART_Cmd)
    USART_DMACmd                             0x0800753b   Thumb Code    18  stm32f4xx_usart.o(i.USART_DMACmd)
    USART_GetFlagStatus                      0x0800754d   Thumb Code    26  stm32f4xx_usart.o(i.USART_GetFlagStatus)
    USART_GetITStatus                        0x08007567   Thumb Code    84  stm32f4xx_usart.o(i.USART_GetITStatus)
    USART_ITConfig                           0x080075bb   Thumb Code    74  stm32f4xx_usart.o(i.USART_ITConfig)
    USART_Init                               0x08007605   Thumb Code   204  stm32f4xx_usart.o(i.USART_Init)
    USART_ReceiveData                        0x080076d9   Thumb Code    10  stm32f4xx_usart.o(i.USART_ReceiveData)
    USART_SendData                           0x080076e3   Thumb Code     8  stm32f4xx_usart.o(i.USART_SendData)
    UsageFault_Handler                       0x080076eb   Thumb Code     4  stm32f4xx_it.o(i.UsageFault_Handler)
    __0printf                                0x080076f1   Thumb Code    22  printfa.o(i.__0printf)
    __1printf                                0x080076f1   Thumb Code     0  printfa.o(i.__0printf)
    __2printf                                0x080076f1   Thumb Code     0  printfa.o(i.__0printf)
    __c89printf                              0x080076f1   Thumb Code     0  printfa.o(i.__0printf)
    printf                                   0x080076f1   Thumb Code     0  printfa.o(i.__0printf)
    __0sprintf                               0x08007711   Thumb Code    34  printfa.o(i.__0sprintf)
    __1sprintf                               0x08007711   Thumb Code     0  printfa.o(i.__0sprintf)
    __2sprintf                               0x08007711   Thumb Code     0  printfa.o(i.__0sprintf)
    __c89sprintf                             0x08007711   Thumb Code     0  printfa.o(i.__0sprintf)
    sprintf                                  0x08007711   Thumb Code     0  printfa.o(i.__0sprintf)
    __scatterload_copy                       0x08007739   Thumb Code    14  handlers.o(i.__scatterload_copy)
    __scatterload_null                       0x08007747   Thumb Code     2  handlers.o(i.__scatterload_null)
    __scatterload_zeroinit                   0x08007749   Thumb Code    14  handlers.o(i.__scatterload_zeroinit)
    appBlackBox                              0x08007ff5   Thumb Code  1134  apppresent.o(i.appBlackBox)
    appBuzzer                                0x08008465   Thumb Code   198  apppresent.o(i.appBuzzer)
    appCmdHander                             0x08008531   Thumb Code  1272  appcommunicate.o(i.appCmdHander)
    appMainCycle                             0x08008a3d   Thumb Code  2018  appcontroller.o(i.appMainCycle)
    appPositionCtl                           0x08009239   Thumb Code    18  appcontroller.o(i.appPositionCtl)
    appSendBluetooth                         0x0800924d   Thumb Code  2400  appcommunicate.o(i.appSendBluetooth)
    appTaskStart                             0x08009bc9   Thumb Code   740  app.o(i.appTaskStart)
    appWatchDog                              0x08009fed   Thumb Code   160  app.o(i.appWatchDog)
    at25320_WRDI                             0x0800a09d   Thumb Code    30  at25320.o(i.at25320_WRDI)
    at25320_WREN                             0x0800a0c5   Thumb Code    30  at25320.o(i.at25320_WREN)
    at25320_readBuffer                       0x0800a0ed   Thumb Code    76  at25320.o(i.at25320_readBuffer)
    at25320_writeBuffer                      0x0800a179   Thumb Code    74  at25320.o(i.at25320_writeBuffer)
    cmpWifiStr                               0x0800a429   Thumb Code    90  stm32f4xx_it.o(i.cmpWifiStr)
    constrain_float                          0x0800a499   Thumb Code    32  appcontroller.o(i.constrain_float)
    crc32Calculate                           0x0800a4b9   Thumb Code    24  crctable.o(i.crc32Calculate)
    disk_initialize                          0x0800a977   Thumb Code    38  diskio.o(i.disk_initialize)
    disk_ioctl                               0x0800a99d   Thumb Code   112  diskio.o(i.disk_ioctl)
    disk_read                                0x0800aa11   Thumb Code   132  diskio.o(i.disk_read)
    disk_status                              0x0800aa95   Thumb Code    28  diskio.o(i.disk_status)
    disk_write                               0x0800aab1   Thumb Code   132  diskio.o(i.disk_write)
    f_close                                  0x0800ab35   Thumb Code    34  ff.o(i.f_close)
    f_lseek                                  0x0800ab57   Thumb Code   684  ff.o(i.f_lseek)
    f_mount                                  0x0800ae05   Thumb Code    86  ff.o(i.f_mount)
    f_open                                   0x0800ae61   Thumb Code   498  ff.o(i.f_open)
    f_read                                   0x0800b053   Thumb Code   428  ff.o(i.f_read)
    f_stat                                   0x0800b1ff   Thumb Code    62  ff.o(i.f_stat)
    f_sync                                   0x0800b23d   Thumb Code   160  ff.o(i.f_sync)
    f_write                                  0x0800b2dd   Thumb Code   494  ff.o(i.f_write)
    fputc                                    0x0800b867   Thumb Code    20  bsp.o(i.fputc)
    fun_createTaskSimple                     0x0800b87d   Thumb Code    70  function.o(i.fun_createTaskSimple)
    fun_delayMs                              0x0800b8d1   Thumb Code    30  function.o(i.fun_delayMs)
    fun_delayUs                              0x0800b8f1   Thumb Code    64  function.o(i.fun_delayUs)
    fun_nvicSetNormal                        0x0800b935   Thumb Code    34  function.o(i.fun_nvicSetNormal)
    fun_spiSwap                              0x0800b957   Thumb Code    50  function.o(i.fun_spiSwap)
    fun_usartSend                            0x0800b989   Thumb Code    30  function.o(i.fun_usartSend)
    getFileNameFromNumber                    0x0800b9a7   Thumb Code   148  apppresent.o(i.getFileNameFromNumber)
    get_fattime                              0x0800bb1b   Thumb Code     4  ff_driver.o(i.get_fattime)
    main                                     0x0800bc41   Thumb Code    70  main.o(i.main)
    setMotor                                 0x0800c015   Thumb Code    48  appcontroller.o(i.setMotor)
    usartSendStr                             0x0800c173   Thumb Code    26  appcommunicate.o(i.usartSendStr)
    wifiRecGotIp                             0x0800c1ce   Data          12  stm32f4xx_it.o(.constdata)
    wifiRecConnect                           0x0800c1da   Data           8  stm32f4xx_it.o(.constdata)
    wifiRecMode                              0x0800c1e2   Data           3  stm32f4xx_it.o(.constdata)
    wifiRecSend                              0x0800c1e5   Data           2  stm32f4xx_it.o(.constdata)
    OSCfg_IdleTaskStkBasePtr                 0x0800c1e8   Data           4  os_cfg_app.o(.constdata)
    OSCfg_IdleTaskStkLimit                   0x0800c1ec   Data           4  os_cfg_app.o(.constdata)
    OSCfg_IdleTaskStkSize                    0x0800c1f0   Data           4  os_cfg_app.o(.constdata)
    OSCfg_IdleTaskStkSizeRAM                 0x0800c1f4   Data           4  os_cfg_app.o(.constdata)
    OSCfg_IntQBasePtr                        0x0800c1f8   Data           4  os_cfg_app.o(.constdata)
    OSCfg_IntQSize                           0x0800c1fc   Data           2  os_cfg_app.o(.constdata)
    OSCfg_IntQSizeRAM                        0x0800c200   Data           4  os_cfg_app.o(.constdata)
    OSCfg_IntQTaskStkBasePtr                 0x0800c204   Data           4  os_cfg_app.o(.constdata)
    OSCfg_IntQTaskStkLimit                   0x0800c208   Data           4  os_cfg_app.o(.constdata)
    OSCfg_IntQTaskStkSize                    0x0800c20c   Data           4  os_cfg_app.o(.constdata)
    OSCfg_IntQTaskStkSizeRAM                 0x0800c210   Data           4  os_cfg_app.o(.constdata)
    OSCfg_ISRStkBasePtr                      0x0800c214   Data           4  os_cfg_app.o(.constdata)
    OSCfg_ISRStkSize                         0x0800c218   Data           4  os_cfg_app.o(.constdata)
    OSCfg_ISRStkSizeRAM                      0x0800c21c   Data           4  os_cfg_app.o(.constdata)
    OSCfg_MsgPoolSize                        0x0800c220   Data           2  os_cfg_app.o(.constdata)
    OSCfg_MsgPoolSizeRAM                     0x0800c224   Data           4  os_cfg_app.o(.constdata)
    OSCfg_MsgPoolBasePtr                     0x0800c228   Data           4  os_cfg_app.o(.constdata)
    OSCfg_StatTaskPrio                       0x0800c22c   Data           1  os_cfg_app.o(.constdata)
    OSCfg_StatTaskRate_Hz                    0x0800c230   Data           4  os_cfg_app.o(.constdata)
    OSCfg_StatTaskStkBasePtr                 0x0800c234   Data           4  os_cfg_app.o(.constdata)
    OSCfg_StatTaskStkLimit                   0x0800c238   Data           4  os_cfg_app.o(.constdata)
    OSCfg_StatTaskStkSize                    0x0800c23c   Data           4  os_cfg_app.o(.constdata)
    OSCfg_StatTaskStkSizeRAM                 0x0800c240   Data           4  os_cfg_app.o(.constdata)
    OSCfg_StkSizeMin                         0x0800c244   Data           4  os_cfg_app.o(.constdata)
    OSCfg_TickRate_Hz                        0x0800c248   Data           4  os_cfg_app.o(.constdata)
    OSCfg_TickTaskPrio                       0x0800c24c   Data           1  os_cfg_app.o(.constdata)
    OSCfg_TickTaskStkBasePtr                 0x0800c250   Data           4  os_cfg_app.o(.constdata)
    OSCfg_TickTaskStkLimit                   0x0800c254   Data           4  os_cfg_app.o(.constdata)
    OSCfg_TickTaskStkSize                    0x0800c258   Data           4  os_cfg_app.o(.constdata)
    OSCfg_TickTaskStkSizeRAM                 0x0800c25c   Data           4  os_cfg_app.o(.constdata)
    OSCfg_TmrTaskPrio                        0x0800c260   Data           1  os_cfg_app.o(.constdata)
    OSCfg_TmrTaskRate_Hz                     0x0800c264   Data           4  os_cfg_app.o(.constdata)
    OSCfg_TmrTaskStkBasePtr                  0x0800c268   Data           4  os_cfg_app.o(.constdata)
    OSCfg_TmrTaskStkLimit                    0x0800c26c   Data           4  os_cfg_app.o(.constdata)
    OSCfg_TmrTaskStkSize                     0x0800c270   Data           4  os_cfg_app.o(.constdata)
    OSCfg_TmrTaskStkSizeRAM                  0x0800c274   Data           4  os_cfg_app.o(.constdata)
    OSCfg_DataSizeRAM                        0x0800c278   Data           4  os_cfg_app.o(.constdata)
    OSDbg_DbgEn                              0x0800c27c   Data           1  os_dbg.o(.constdata)
    OSDbg_ArgChkEn                           0x0800c27d   Data           1  os_dbg.o(.constdata)
    OSDbg_AppHooksEn                         0x0800c27e   Data           1  os_dbg.o(.constdata)
    OSDbg_EndiannessTest                     0x0800c280   Data           4  os_dbg.o(.constdata)
    OSDbg_CalledFromISRChkEn                 0x0800c284   Data           1  os_dbg.o(.constdata)
    OSDbg_FlagEn                             0x0800c285   Data           1  os_dbg.o(.constdata)
    OSDbg_FlagGrp                            0x0800c288   Data          40  os_dbg.o(.constdata)
    OSDbg_FlagDelEn                          0x0800c2b0   Data           1  os_dbg.o(.constdata)
    OSDbg_FlagModeClrEn                      0x0800c2b1   Data           1  os_dbg.o(.constdata)
    OSDbg_FlagPendAbortEn                    0x0800c2b2   Data           1  os_dbg.o(.constdata)
    OSDbg_FlagGrpSize                        0x0800c2b4   Data           2  os_dbg.o(.constdata)
    OSDbg_FlagWidth                          0x0800c2b6   Data           2  os_dbg.o(.constdata)
    OSDbg_IntQ                               0x0800c2b8   Data           2  os_dbg.o(.constdata)
    OSDbg_ISRPostDeferredEn                  0x0800c2ba   Data           1  os_dbg.o(.constdata)
    OSDbg_Mem                                0x0800c2bc   Data          32  os_dbg.o(.constdata)
    OSDbg_MemEn                              0x0800c2dc   Data           1  os_dbg.o(.constdata)
    OSDbg_MemSize                            0x0800c2de   Data           2  os_dbg.o(.constdata)
    OSDbg_MsgEn                              0x0800c2e0   Data           1  os_dbg.o(.constdata)
    OSDbg_MsgSize                            0x0800c2e2   Data           2  os_dbg.o(.constdata)
    OSDbg_MsgPoolSize                        0x0800c2e4   Data           2  os_dbg.o(.constdata)
    OSDbg_MsgQSize                           0x0800c2e6   Data           2  os_dbg.o(.constdata)
    OSDbg_Mutex                              0x0800c2e8   Data          48  os_dbg.o(.constdata)
    OSDbg_MutexEn                            0x0800c318   Data           1  os_dbg.o(.constdata)
    OSDbg_MutexDelEn                         0x0800c319   Data           1  os_dbg.o(.constdata)
    OSDbg_MutexPendAbortEn                   0x0800c31a   Data           1  os_dbg.o(.constdata)
    OSDbg_MutexSize                          0x0800c31c   Data           2  os_dbg.o(.constdata)
    OSDbg_ObjTypeChkEn                       0x0800c31e   Data           1  os_dbg.o(.constdata)
    OSDbg_PendMultiEn                        0x0800c31f   Data           1  os_dbg.o(.constdata)
    OSDbg_PendDataSize                       0x0800c320   Data           2  os_dbg.o(.constdata)
    OSDbg_PendListSize                       0x0800c322   Data           2  os_dbg.o(.constdata)
    OSDbg_PendObjSize                        0x0800c324   Data           2  os_dbg.o(.constdata)
    OSDbg_PrioMax                            0x0800c326   Data           2  os_dbg.o(.constdata)
    OSDbg_PrioTblSize                        0x0800c328   Data           2  os_dbg.o(.constdata)
    OSDbg_PtrSize                            0x0800c32a   Data           2  os_dbg.o(.constdata)
    OSDbg_Q                                  0x0800c32c   Data          48  os_dbg.o(.constdata)
    OSDbg_QEn                                0x0800c35c   Data           1  os_dbg.o(.constdata)
    OSDbg_QDelEn                             0x0800c35d   Data           1  os_dbg.o(.constdata)
    OSDbg_QFlushEn                           0x0800c35e   Data           1  os_dbg.o(.constdata)
    OSDbg_QPendAbortEn                       0x0800c35f   Data           1  os_dbg.o(.constdata)
    OSDbg_QSize                              0x0800c360   Data           2  os_dbg.o(.constdata)
    OSDbg_SchedRoundRobinEn                  0x0800c362   Data           1  os_dbg.o(.constdata)
    OSDbg_Sem                                0x0800c364   Data          40  os_dbg.o(.constdata)
    OSDbg_SemEn                              0x0800c38c   Data           1  os_dbg.o(.constdata)
    OSDbg_SemDelEn                           0x0800c38d   Data           1  os_dbg.o(.constdata)
    OSDbg_SemPendAbortEn                     0x0800c38e   Data           1  os_dbg.o(.constdata)
    OSDbg_SemSetEn                           0x0800c38f   Data           1  os_dbg.o(.constdata)
    OSDbg_SemSize                            0x0800c390   Data           2  os_dbg.o(.constdata)
    OSDbg_RdyList                            0x0800c392   Data           2  os_dbg.o(.constdata)
    OSDbg_RdyListSize                        0x0800c394   Data           4  os_dbg.o(.constdata)
    OSDbg_StkWidth                           0x0800c398   Data           1  os_dbg.o(.constdata)
    OSDbg_StatTaskEn                         0x0800c399   Data           1  os_dbg.o(.constdata)
    OSDbg_StatTaskStkChkEn                   0x0800c39a   Data           1  os_dbg.o(.constdata)
    OSDbg_TaskChangePrioEn                   0x0800c39b   Data           1  os_dbg.o(.constdata)
    OSDbg_TaskDelEn                          0x0800c39c   Data           1  os_dbg.o(.constdata)
    OSDbg_TaskQEn                            0x0800c39d   Data           1  os_dbg.o(.constdata)
    OSDbg_TaskQPendAbortEn                   0x0800c39e   Data           1  os_dbg.o(.constdata)
    OSDbg_TaskProfileEn                      0x0800c39f   Data           1  os_dbg.o(.constdata)
    OSDbg_TaskRegTblSize                     0x0800c3a0   Data           2  os_dbg.o(.constdata)
    OSDbg_TaskSemPendAbortEn                 0x0800c3a2   Data           1  os_dbg.o(.constdata)
    OSDbg_TaskSuspendEn                      0x0800c3a3   Data           1  os_dbg.o(.constdata)
    OSDbg_TCBSize                            0x0800c3a4   Data           2  os_dbg.o(.constdata)
    OSDbg_TickListSize                       0x0800c3a6   Data           2  os_dbg.o(.constdata)
    OSDbg_TimeDlyHMSMEn                      0x0800c3a8   Data           1  os_dbg.o(.constdata)
    OSDbg_TimeDlyResumeEn                    0x0800c3a9   Data           1  os_dbg.o(.constdata)
    OSDbg_TLS_TblSize                        0x0800c3aa   Data           2  os_dbg.o(.constdata)
    OSDbg_Tmr                                0x0800c3ac   Data          48  os_dbg.o(.constdata)
    OSDbg_TmrEn                              0x0800c3dc   Data           1  os_dbg.o(.constdata)
    OSDbg_TmrDelEn                           0x0800c3dd   Data           1  os_dbg.o(.constdata)
    OSDbg_TmrSize                            0x0800c3de   Data           2  os_dbg.o(.constdata)
    OSDbg_VersionNbr                         0x0800c3e0   Data           2  os_dbg.o(.constdata)
    OSDbg_DataSize                           0x0800c3e4   Data           4  os_dbg.o(.constdata)
    wifiCmdConServer                         0x0800c3e8   Data          39  appcommunicate.o(.constdata)
    wifiCmdCipMode                           0x0800c40f   Data          15  appcommunicate.o(.constdata)
    wifiCmdCipSend                           0x0800c41e   Data          13  appcommunicate.o(.constdata)
    wifiCmdCipSendLenFix                     0x0800c42b   Data          16  appcommunicate.o(.constdata)
    wifiCmdReset1                            0x0800c43b   Data           4  appcommunicate.o(.constdata)
    wifiCmdReset2                            0x0800c43f   Data          11  appcommunicate.o(.constdata)
    Region$$Table$$Base                      0x0800c44c   Number         0  anon$$obj.o(Region$$Table)
    Region$$Table$$Limit                     0x0800c46c   Number         0  anon$$obj.o(Region$$Table)
    wifiRecCounter                           0x20000010   Data           1  stm32f4xx_it.o(.data)
    usart3PtrMem                             0x20000014   Data           4  stm32f4xx_it.o(.data)
    StopCondition                            0x20000030   Data           4  sdio_tf.o(.data)
    TransferError                            0x20000034   Data           1  sdio_tf.o(.data)
    TransferEnd                              0x20000038   Data           4  sdio_tf.o(.data)
    DMAEndOfTransfer                         0x2000003c   Data           4  sdio_tf.o(.data)
    CPU_TS_TmrFreq_Hz                        0x20000040   Data           4  cpu_core.o(.data)
    CPU_IntDisMeasCtr                        0x20000044   Data           2  cpu_core.o(.data)
    CPU_IntDisNestCtr                        0x20000046   Data           2  cpu_core.o(.data)
    CPU_IntDisMeasStart_cnts                 0x20000048   Data           4  cpu_core.o(.data)
    CPU_IntDisMeasStop_cnts                  0x2000004c   Data           4  cpu_core.o(.data)
    CPU_IntDisMeasOvrhd_cnts                 0x20000050   Data           4  cpu_core.o(.data)
    CPU_IntDisMeasMaxCur_cnts                0x20000054   Data           4  cpu_core.o(.data)
    CPU_IntDisMeasMax_cnts                   0x20000058   Data           4  cpu_core.o(.data)
    OS_CPU_ExceptStkBase                     0x2000005c   Data           4  os_cpu_c.o(.data)
    OSPrioTbl                                0x20000060   Data           8  os_prio.o(.data)
    OS_AppTaskCreateHookPtr                  0x20000068   Data           4  os_var.o(.data)
    OS_AppTaskDelHookPtr                     0x2000006c   Data           4  os_var.o(.data)
    OS_AppTaskReturnHookPtr                  0x20000070   Data           4  os_var.o(.data)
    OS_AppIdleTaskHookPtr                    0x20000074   Data           4  os_var.o(.data)
    OS_AppStatTaskHookPtr                    0x20000078   Data           4  os_var.o(.data)
    OS_AppTaskSwHookPtr                      0x2000007c   Data           4  os_var.o(.data)
    OS_AppTimeTickHookPtr                    0x20000080   Data           4  os_var.o(.data)
    OSIdleTaskCtr                            0x20000084   Data           4  os_var.o(.data)
    OSIntNestingCtr                          0x20000088   Data           1  os_var.o(.data)
    OSIntDisTimeMax                          0x2000008c   Data           4  os_var.o(.data)
    OSRunning                                0x20000090   Data           1  os_var.o(.data)
    OSFlagDbgListPtr                         0x20000094   Data           4  os_var.o(.data)
    OSFlagQty                                0x20000098   Data           2  os_var.o(.data)
    OSMemDbgListPtr                          0x2000009c   Data           4  os_var.o(.data)
    OSMemQty                                 0x200000a0   Data           2  os_var.o(.data)
    OSMutexDbgListPtr                        0x200000a4   Data           4  os_var.o(.data)
    OSMutexQty                               0x200000a8   Data           2  os_var.o(.data)
    OSPrioCur                                0x200000aa   Data           1  os_var.o(.data)
    OSPrioHighRdy                            0x200000ab   Data           1  os_var.o(.data)
    OSPrioSaved                              0x200000ac   Data           1  os_var.o(.data)
    OSQDbgListPtr                            0x200000b0   Data           4  os_var.o(.data)
    OSQQty                                   0x200000b4   Data           2  os_var.o(.data)
    OSSchedLockNestingCtr                    0x200000b6   Data           1  os_var.o(.data)
    OSSemDbgListPtr                          0x200000b8   Data           4  os_var.o(.data)
    OSSemQty                                 0x200000bc   Data           2  os_var.o(.data)
    OSStatResetFlag                          0x200000be   Data           1  os_var.o(.data)
    OSStatTaskCPUUsage                       0x200000c0   Data           2  os_var.o(.data)
    OSStatTaskCPUUsageMax                    0x200000c2   Data           2  os_var.o(.data)
    OSStatTaskCtr                            0x200000c4   Data           4  os_var.o(.data)
    OSStatTaskCtrMax                         0x200000c8   Data           4  os_var.o(.data)
    OSStatTaskCtrRun                         0x200000cc   Data           4  os_var.o(.data)
    OSStatTaskRdy                            0x200000d0   Data           1  os_var.o(.data)
    OSStatTaskTimeMax                        0x200000d4   Data           4  os_var.o(.data)
    OSTaskCtxSwCtr                           0x200000d8   Data           4  os_var.o(.data)
    OSTaskDbgListPtr                         0x200000dc   Data           4  os_var.o(.data)
    OSTaskQty                                0x200000e0   Data           2  os_var.o(.data)
    OSTaskRegNextAvailID                     0x200000e2   Data           1  os_var.o(.data)
    OSTickCtr                                0x200000e4   Data           4  os_var.o(.data)
    OSTickTaskTimeMax                        0x200000e8   Data           4  os_var.o(.data)
    OSTickListDly                            0x200000ec   Data           8  os_var.o(.data)
    OSTickListTimeout                        0x200000f4   Data           8  os_var.o(.data)
    OSTmrDbgListPtr                          0x200000fc   Data           4  os_var.o(.data)
    OSTmrListEntries                         0x20000100   Data           2  os_var.o(.data)
    OSTmrListPtr                             0x20000104   Data           4  os_var.o(.data)
    OSTmrQty                                 0x20000108   Data           2  os_var.o(.data)
    OSTmrTaskTimeMax                         0x2000010c   Data           4  os_var.o(.data)
    OSTmrTickCtr                             0x20000110   Data           4  os_var.o(.data)
    OSTmrUpdateCnt                           0x20000114   Data           4  os_var.o(.data)
    OSTmrUpdateCtr                           0x20000118   Data           4  os_var.o(.data)
    OSTCBCurPtr                              0x2000011c   Data           4  os_var.o(.data)
    OSTCBHighRdyPtr                          0x20000120   Data           4  os_var.o(.data)
    dogData                                  0x20000124   Data           4  app.o(.data)
    res                                      0x20000128   Data           1  apppresent.o(.data)
    uavParaDefault                           0x2000012c   Data           4  appcommunicate.o(.data)
    uavConfigDefault                         0x20000130   Data           1  appcommunicate.o(.data)
    __stdout                                 0x200002c0   Data           4  stdout.o(.data)
    bspData                                  0x200002c4   Data         296  bsp.o(.bss)
    receiverBuf                              0x200003ec   Data          12  stm32f4xx_it.o(.bss)
    sdCardInfo                               0x20000428   Data          88  sdio_tf.o(.bss)
    sdioInitStructure                        0x20000480   Data          24  sdio_tf.o(.bss)
    sdioCmdInitStructure                     0x20000498   Data          20  sdio_tf.o(.bss)
    sdioDataInitStructure                    0x200004ac   Data          24  sdio_tf.o(.bss)
    appTaskStartTCB                          0x200004c4   Data         192  main.o(.bss)
    CPU_Name                                 0x20000984   Data          16  cpu_core.o(.bss)
    OSCfg_IdleTaskStk                        0x20000994   Data         512  os_cfg_app.o(.bss)
    OSCfg_ISRStk                             0x20000b94   Data         400  os_cfg_app.o(.bss)
    OSCfg_MsgPool                            0x20000d24   Data        1600  os_cfg_app.o(.bss)
    OSCfg_StatTaskStk                        0x20001364   Data         400  os_cfg_app.o(.bss)
    OSCfg_TickTaskStk                        0x200014f4   Data         512  os_cfg_app.o(.bss)
    OSCfg_TmrTaskStk                         0x200016f4   Data         512  os_cfg_app.o(.bss)
    OSIdleTaskTCB                            0x200018f4   Data         192  os_var.o(.bss)
    OSMsgPool                                0x200019b4   Data          12  os_var.o(.bss)
    OSRdyList                                0x200019c0   Data         768  os_var.o(.bss)
    OSStatTaskTCB                            0x20001cc0   Data         192  os_var.o(.bss)
    OSTickTaskTCB                            0x20001d80   Data         192  os_var.o(.bss)
    OSTmrMutex                               0x20001e40   Data          48  os_var.o(.bss)
    OSTmrTaskTCB                             0x20001e70   Data         192  os_var.o(.bss)
    byte8PartionStorage                      0x20005330   Data         400  app.o(.bss)
    appData                                  0x200054c0   Data        1704  app.o(.bss)
    uavData                                  0x20005b68   Data         420  app.o(.bss)
    imuData                                  0x20005d0c   Data          52  app.o(.bss)
    sonarTest                                0x20005d40   Data          10  apppresent.o(.bss)
    tfCardBuffer                             0x20005d4a   Data         128  apppresent.o(.bss)
    wifiReturnBuffer                         0x20005dca   Data          50  appcommunicate.o(.bss)
    wifiBuffer                               0x20005dfc   Data         176  appcommunicate.o(.bss)
    saveBuffer1                              0x20005eac   Data          32  appcommunicate.o(.bss)
    saveBuffer2                              0x20005ecc   Data          32  appcommunicate.o(.bss)
    __initial_sp                             0x200062f0   Data           0  startup_stm32f40_41xxx.o(STACK)



==============================================================================

Memory Map of the image

  Image Entry point : 0x08000189

  Load Region LR_IROM1 (Base: 0x08000000, Size: 0x0000c730, Max: 0x00100000, ABSOLUTE, COMPRESSED[0x0000c53c])

    Execution Region ER_IROM1 (Base: 0x08000000, Size: 0x0000c46c, Max: 0x00100000, ABSOLUTE)

    Base Addr    Size         Type   Attr      Idx    E Section Name        Object

    0x08000000   0x00000188   Data   RO            3    RESET               startup_stm32f40_41xxx.o
    0x08000188   0x00000000   Code   RO         6257  * .ARM.Collect$$$$00000000  mc_w.l(entry.o)
    0x08000188   0x00000004   Code   RO         6525    .ARM.Collect$$$$00000001  mc_w.l(entry2.o)
    0x0800018c   0x00000004   Code   RO         6528    .ARM.Collect$$$$00000004  mc_w.l(entry5.o)
    0x08000190   0x00000000   Code   RO         6530    .ARM.Collect$$$$00000008  mc_w.l(entry7b.o)
    0x08000190   0x00000000   Code   RO         6532    .ARM.Collect$$$$0000000A  mc_w.l(entry8b.o)
    0x08000190   0x00000008   Code   RO         6533    .ARM.Collect$$$$0000000B  mc_w.l(entry9a.o)
    0x08000198   0x00000000   Code   RO         6535    .ARM.Collect$$$$0000000D  mc_w.l(entry10a.o)
    0x08000198   0x00000000   Code   RO         6537    .ARM.Collect$$$$0000000F  mc_w.l(entry11a.o)
    0x08000198   0x00000004   Code   RO         6526    .ARM.Collect$$$$00002712  mc_w.l(entry2.o)
    0x0800019c   0x00000024   Code   RO            4    .text               startup_stm32f40_41xxx.o
    0x080001c0   0x00000034   Code   RO         3937    .text               cpu_a.o
    0x080001f4   0x00000062   Code   RO         6260    .text               mc_w.l(uldiv.o)
    0x08000256   0x00000026   Code   RO         6523    .text               mf_w.l(f2d.o)
    0x0800027c   0x0000002c   Code   RO         6540    .text               mc_w.l(uidiv.o)
    0x080002a8   0x0000001e   Code   RO         6542    .text               mc_w.l(llshl.o)
    0x080002c6   0x00000020   Code   RO         6544    .text               mc_w.l(llushr.o)
    0x080002e6   0x00000000   Code   RO         6546    .text               mc_w.l(iusefp.o)
    0x080002e6   0x0000014e   Code   RO         6547    .text               mf_w.l(dadd.o)
    0x08000434   0x000000e4   Code   RO         6549    .text               mf_w.l(dmul.o)
    0x08000518   0x000000de   Code   RO         6551    .text               mf_w.l(ddiv.o)
    0x080005f6   0x00000030   Code   RO         6553    .text               mf_w.l(dfixul.o)
    0x08000626   0x00000002   PAD
    0x08000628   0x00000030   Code   RO         6555    .text               mf_w.l(cdrcmple.o)
    0x08000658   0x00000024   Code   RO         6557    .text               mc_w.l(init.o)
    0x0800067c   0x00000024   Code   RO         6559    .text               mc_w.l(llsshr.o)
    0x080006a0   0x000000ba   Code   RO         6561    .text               mf_w.l(depilogue.o)
    0x0800075a   0x00000056   Code   RO         6571    .text               mc_w.l(__dczerorl2.o)
    0x080007b0   0x000000d4   Code   RO         5527    CODE                os_cpu_a.o
    0x08000884   0x0000000e   Code   RO         2724    i.BSP_CPU_ClkFreq   bsp.o
    0x08000892   0x00000002   PAD
    0x08000894   0x00000264   Code   RO         2725    i.BSP_GPIOinit      bsp.o
    0x08000af8   0x00000074   Code   RO         2726    i.BSP_dmaInit       bsp.o
    0x08000b6c   0x00000002   Code   RO         2727    i.BSP_i2cInit       bsp.o
    0x08000b6e   0x00000034   Code   RO         2728    i.BSP_init          bsp.o
    0x08000ba2   0x00000066   Code   RO         2729    i.BSP_nvicInit      bsp.o
    0x08000c08   0x0000005c   Code   RO         2730    i.BSP_spiInit       bsp.o
    0x08000c64   0x00000158   Code   RO         2731    i.BSP_timerInit     bsp.o
    0x08000dbc   0x000000d4   Code   RO         2732    i.BSP_usartInit     bsp.o
    0x08000e90   0x00000002   Code   RO         2733    i.Bsp_adcInit       bsp.o
    0x08000e92   0x00000002   PAD
    0x08000e94   0x0000008c   Code   RO         2734    i.Bsp_canInit       bsp.o
    0x08000f20   0x00000002   Code   RO         2735    i.Bsp_extiInit      bsp.o
    0x08000f22   0x00000002   PAD
    0x08000f24   0x00000114   Code   RO         3304    i.Bsp_sdioInit      sdio_tf.o
    0x08001038   0x00000004   Code   RO         3074    i.BusFault_Handler  stm32f4xx_it.o
    0x0800103c   0x00000018   Code   RO         3075    i.CAN1_RX0_IRQHandler  stm32f4xx_it.o
    0x08001054   0x00000038   Code   RO         2507    i.CAN_DeInit        stm32f4xx_can.o
    0x0800108c   0x00000108   Code   RO         2509    i.CAN_FilterInit    stm32f4xx_can.o
    0x08001194   0x00000114   Code   RO         2516    i.CAN_Init          stm32f4xx_can.o
    0x080012a8   0x000000f0   Code   RO         2519    i.CAN_Receive       stm32f4xx_can.o
    0x08001398   0x00000010   Code   RO         3773    i.CPU_Init          cpu_core.o
    0x080013a8   0x00000084   Code   RO         3774    i.CPU_IntDisMeasInit  cpu_core.o
    0x0800142c   0x0000001c   Code   RO         3775    i.CPU_IntDisMeasMaxCalc  cpu_core.o
    0x08001448   0x0000002c   Code   RO         3776    i.CPU_IntDisMeasMaxCurGet  cpu_core.o
    0x08001474   0x0000002c   Code   RO         3777    i.CPU_IntDisMeasMaxCurReset  cpu_core.o
    0x080014a0   0x0000002c   Code   RO         3778    i.CPU_IntDisMeasMaxGet  cpu_core.o
    0x080014cc   0x00000034   Code   RO         3779    i.CPU_IntDisMeasStart  cpu_core.o
    0x08001500   0x00000054   Code   RO         3780    i.CPU_IntDisMeasStop  cpu_core.o
    0x08001554   0x00000038   Code   RO         3781    i.CPU_NameClr       cpu_core.o
    0x0800158c   0x00000008   Code   RO         3783    i.CPU_NameInit      cpu_core.o
    0x08001594   0x00000014   Code   RO         3788    i.CPU_TS_Init       cpu_core.o
    0x080015a8   0x0000000c   Code   RO         3790    i.CPU_TS_TmrFreqSet  cpu_core.o
    0x080015b4   0x00000034   Code   RO         2737    i.CPU_TS_TmrInit    bsp.o
    0x080015e8   0x0000000c   Code   RO         2738    i.CPU_TS_TmrRd      bsp.o
    0x080015f4   0x00000134   Code   RO         3305    i.CmdResp1Error     sdio_tf.o
    0x08001728   0x00000020   Code   RO         3076    i.DMA1_Stream2_IRQHandler  stm32f4xx_it.o
    0x08001748   0x00000036   Code   RO         3077    i.DMA2_Stream3_IRQHandler  stm32f4xx_it.o
    0x0800177e   0x00000002   PAD
    0x08001780   0x00000034   Code   RO          453    i.DMA_ClearFlag     stm32f4xx_dma.o
    0x080017b4   0x00000034   Code   RO          454    i.DMA_ClearITPendingBit  stm32f4xx_dma.o
    0x080017e8   0x00000016   Code   RO          455    i.DMA_Cmd           stm32f4xx_dma.o
    0x080017fe   0x00000002   PAD
    0x08001800   0x00000158   Code   RO          456    i.DMA_DeInit        stm32f4xx_dma.o
    0x08001958   0x00000016   Code   RO          459    i.DMA_FlowControllerConfig  stm32f4xx_dma.o
    0x0800196e   0x00000002   PAD
    0x08001970   0x00000064   Code   RO          465    i.DMA_GetITStatus   stm32f4xx_dma.o
    0x080019d4   0x0000003a   Code   RO          466    i.DMA_ITConfig      stm32f4xx_dma.o
    0x08001a0e   0x00000002   PAD
    0x08001a10   0x00000058   Code   RO          467    i.DMA_Init          stm32f4xx_dma.o
    0x08001a68   0x00000002   Code   RO         3078    i.DebugMon_Handler  stm32f4xx_it.o
    0x08001a6a   0x00000016   Code   RO         3079    i.EXTI15_10_IRQHandler  stm32f4xx_it.o
    0x08001a80   0x00000024   Code   RO         3080    i.EXTI9_5_IRQHandler  stm32f4xx_it.o
    0x08001aa4   0x0000000c   Code   RO          586    i.EXTI_ClearITPendingBit  stm32f4xx_exti.o
    0x08001ab0   0x00000018   Code   RO          590    i.EXTI_GetITStatus  stm32f4xx_exti.o
    0x08001ac8   0x00000194   Code   RO         3306    i.FindSCR           sdio_tf.o
    0x08001c5c   0x00000090   Code   RO          652    i.GPIO_Init         stm32f4xx_gpio.o
    0x08001cec   0x00000046   Code   RO          653    i.GPIO_PinAFConfig  stm32f4xx_gpio.o
    0x08001d32   0x00000004   Code   RO         3081    i.HardFault_Handler  stm32f4xx_it.o
    0x08001d36   0x00000004   Code   RO         3082    i.MemManage_Handler  stm32f4xx_it.o
    0x08001d3a   0x00000012   Code   RO         4081    i.Mem_Clr           lib_mem.o
    0x08001d4c   0x00000054   Code   RO         4108    i.Mem_Set           lib_mem.o
    0x08001da0   0x00000002   Code   RO         3083    i.NMI_Handler       stm32f4xx_it.o
    0x08001da2   0x00000002   PAD
    0x08001da4   0x00000078   Code   RO          155    i.NVIC_Init         misc.o
    0x08001e1c   0x00000014   Code   RO          156    i.NVIC_PriorityGroupConfig  misc.o
    0x08001e30   0x00000002   Code   RO         4416    i.OSCfg_Init        os_cfg_app.o
    0x08001e32   0x00000002   PAD
    0x08001e34   0x00000014   Code   RO         4643    i.OSIdleTaskHook    os_cpu_c.o
    0x08001e48   0x0000014c   Code   RO         4439    i.OSInit            os_core.o
    0x08001f94   0x00000028   Code   RO         4644    i.OSInitHook        os_cpu_c.o
    0x08001fbc   0x0000002c   Code   RO         4440    i.OSIntEnter        os_core.o
    0x08001fe8   0x000000dc   Code   RO         4441    i.OSIntExit         os_core.o
    0x080020c4   0x0000009c   Code   RO         4814    i.OSMemCreate       os_mem.o
    0x08002160   0x00000064   Code   RO         4815    i.OSMemGet          os_mem.o
    0x080021c4   0x00000068   Code   RO         4816    i.OSMemPut          os_mem.o
    0x0800222c   0x0000006c   Code   RO         4886    i.OSMutexCreate     os_mutex.o
    0x08002298   0x000001ec   Code   RO         4887    i.OSMutexPend       os_mutex.o
    0x08002484   0x0000017c   Code   RO         4888    i.OSMutexPost       os_mutex.o
    0x08002600   0x000000a4   Code   RO         4442    i.OSSched           os_core.o
    0x080026a4   0x00000064   Code   RO         4443    i.OSSchedLock       os_core.o
    0x08002708   0x00000088   Code   RO         4444    i.OSSchedUnlock     os_core.o
    0x08002790   0x00000068   Code   RO         5085    i.OSSemCreate       os_sem.o
    0x080027f8   0x00000188   Code   RO         5087    i.OSSemPend         os_sem.o
    0x08002980   0x0000003c   Code   RO         5089    i.OSSemPost         os_sem.o
    0x080029bc   0x00000068   Code   RO         4445    i.OSStart           os_core.o
    0x08002a24   0x00000148   Code   RO         5157    i.OSStatReset       os_stat.o
    0x08002b6c   0x00000100   Code   RO         5158    i.OSStatTaskCPUUsageInit  os_stat.o
    0x08002c6c   0x00000014   Code   RO         4645    i.OSStatTaskHook    os_cpu_c.o
    0x08002c80   0x000000a0   Code   RO         5187    i.OSTaskChangePrio  os_task.o
    0x08002d20   0x00000144   Code   RO         5188    i.OSTaskCreate      os_task.o
    0x08002e64   0x00000018   Code   RO         4646    i.OSTaskCreateHook  os_cpu_c.o
    0x08002e7c   0x000001b8   Code   RO         5190    i.OSTaskQPend       os_task.o
    0x08003034   0x0000002a   Code   RO         5191    i.OSTaskQPost       os_task.o
    0x0800305e   0x00000036   Code   RO         5195    i.OSTaskResume      os_task.o
    0x08003094   0x00000018   Code   RO         4648    i.OSTaskReturnHook  os_cpu_c.o
    0x080030ac   0x000001c8   Code   RO         5196    i.OSTaskSemPend     os_task.o
    0x08003274   0x00000024   Code   RO         5198    i.OSTaskSemPost     os_task.o
    0x08003298   0x000000bc   Code   RO         5200    i.OSTaskStkChk      os_task.o
    0x08003354   0x000000d0   Code   RO         4649    i.OSTaskStkInit     os_cpu_c.o
    0x08003424   0x00000024   Code   RO         5201    i.OSTaskSuspend     os_task.o
    0x08003448   0x000000ac   Code   RO         4650    i.OSTaskSwHook      os_cpu_c.o
    0x080034f4   0x000000b0   Code   RO         5389    i.OSTimeDly         os_time.o
    0x080035a4   0x00000114   Code   RO         5390    i.OSTimeDlyHMSM     os_time.o
    0x080036b8   0x00000044   Code   RO         5393    i.OSTimeTick        os_time.o
    0x080036fc   0x00000014   Code   RO         4651    i.OSTimeTickHook    os_cpu_c.o
    0x08003710   0x00000040   Code   RO         4652    i.OS_CPU_SysTickHandler  os_cpu_c.o
    0x08003750   0x00000030   Code   RO         4653    i.OS_CPU_SysTickInit  os_cpu_c.o
    0x08003780   0x000001a8   Code   RO         4721    i.OS_Dbg_Init       os_dbg.o
    0x08003928   0x00000018   Code   RO         4744    i.OS_FlagInit       os_flag.o
    0x08003940   0x0000004c   Code   RO         4447    i.OS_IdleTask       os_core.o
    0x0800398c   0x00000070   Code   RO         4448    i.OS_IdleTaskInit   os_core.o
    0x080039fc   0x00000028   Code   RO         4817    i.OS_MemDbgListAdd  os_mem.o
    0x08003a24   0x00000018   Code   RO         4818    i.OS_MemInit        os_mem.o
    0x08003a3c   0x0000005c   Code   RO         4850    i.OS_MsgPoolInit    os_msg.o
    0x08003a98   0x00000068   Code   RO         4852    i.OS_MsgQGet        os_msg.o
    0x08003b00   0x0000000e   Code   RO         4853    i.OS_MsgQInit       os_msg.o
    0x08003b0e   0x00000002   PAD
    0x08003b10   0x00000104   Code   RO         4854    i.OS_MsgQPut        os_msg.o
    0x08003c14   0x00000030   Code   RO         4890    i.OS_MutexDbgListAdd  os_mutex.o
    0x08003c44   0x00000008   Code   RO         4892    i.OS_MutexGrpAdd    os_mutex.o
    0x08003c4c   0x0000002c   Code   RO         4894    i.OS_MutexGrpPrioFindHighest  os_mutex.o
    0x08003c78   0x0000001c   Code   RO         4895    i.OS_MutexGrpRemove  os_mutex.o
    0x08003c94   0x00000018   Code   RO         4896    i.OS_MutexInit      os_mutex.o
    0x08003cac   0x00000068   Code   RO         4449    i.OS_Pend           os_core.o
    0x08003d14   0x00000028   Code   RO         4452    i.OS_PendDataInit   os_core.o
    0x08003d3c   0x0000005c   Code   RO         4453    i.OS_PendDbgNameAdd  os_core.o
    0x08003d98   0x00000024   Code   RO         4454    i.OS_PendDbgNameRemove  os_core.o
    0x08003dbc   0x0000003a   Code   RO         4455    i.OS_PendListChangePrio  os_core.o
    0x08003df6   0x0000000a   Code   RO         4456    i.OS_PendListInit   os_core.o
    0x08003e00   0x00000066   Code   RO         4458    i.OS_PendListInsertPrio  os_core.o
    0x08003e66   0x00000034   Code   RO         4459    i.OS_PendListRemove  os_core.o
    0x08003e9a   0x00000042   Code   RO         4460    i.OS_PendListRemove1  os_core.o
    0x08003edc   0x000000d6   Code   RO         4463    i.OS_Post           os_core.o
    0x08003fb2   0x0000002c   Code   RO         4464    i.OS_Post1          os_core.o
    0x08003fde   0x00000002   PAD
    0x08003fe0   0x00000028   Code   RO         4988    i.OS_PrioGetHighest  os_prio.o
    0x08004008   0x00000018   Code   RO         4989    i.OS_PrioInit       os_prio.o
    0x08004020   0x00000024   Code   RO         4990    i.OS_PrioInsert     os_prio.o
    0x08004044   0x00000024   Code   RO         4991    i.OS_PrioRemove     os_prio.o
    0x08004068   0x00000018   Code   RO         5032    i.OS_QInit          os_q.o
    0x08004080   0x00000024   Code   RO         4465    i.OS_RdyListInit    os_core.o
    0x080040a4   0x0000002c   Code   RO         4466    i.OS_RdyListInsert  os_core.o
    0x080040d0   0x00000040   Code   RO         4467    i.OS_RdyListInsertHead  os_core.o
    0x08004110   0x0000003c   Code   RO         4468    i.OS_RdyListInsertTail  os_core.o
    0x0800414c   0x0000005c   Code   RO         4470    i.OS_RdyListRemove  os_core.o
    0x080041a8   0x00000030   Code   RO         5092    i.OS_SemDbgListAdd  os_sem.o
    0x080041d8   0x00000018   Code   RO         5094    i.OS_SemInit        os_sem.o
    0x080041f0   0x0000013e   Code   RO         5095    i.OS_SemPost        os_sem.o
    0x0800432e   0x00000002   PAD
    0x08004330   0x00000324   Code   RO         5159    i.OS_StatTask       os_stat.o
    0x08004654   0x000000cc   Code   RO         5160    i.OS_StatTaskInit   os_stat.o
    0x08004720   0x0000002c   Code   RO         4471    i.OS_TaskBlock      os_core.o
    0x0800474c   0x000000ec   Code   RO         5202    i.OS_TaskChangePrio  os_task.o
    0x08004838   0x00000030   Code   RO         5203    i.OS_TaskDbgListAdd  os_task.o
    0x08004868   0x00000020   Code   RO         5205    i.OS_TaskInit       os_task.o
    0x08004888   0x000000c4   Code   RO         5206    i.OS_TaskInitTCB    os_task.o
    0x0800494c   0x000000f4   Code   RO         5207    i.OS_TaskQPost      os_task.o
    0x08004a40   0x0000011c   Code   RO         5208    i.OS_TaskResume     os_task.o
    0x08004b5c   0x00000024   Code   RO         5209    i.OS_TaskReturn     os_task.o
    0x08004b80   0x000001f0   Code   RO         5210    i.OS_TaskSemPost    os_task.o
    0x08004d70   0x00000138   Code   RO         5211    i.OS_TaskSuspend    os_task.o
    0x08004ea8   0x00000086   Code   RO         5343    i.OS_TickListInsert  os_tick.o
    0x08004f2e   0x00000002   PAD
    0x08004f30   0x000000bc   Code   RO         5344    i.OS_TickListInsertDly  os_tick.o
    0x08004fec   0x00000058   Code   RO         5345    i.OS_TickListRemove  os_tick.o
    0x08005044   0x000000a0   Code   RO         5346    i.OS_TickListUpdateDly  os_tick.o
    0x080050e4   0x0000011c   Code   RO         5347    i.OS_TickListUpdateTimeout  os_tick.o
    0x08005200   0x0000006c   Code   RO         5348    i.OS_TickTask       os_tick.o
    0x0800526c   0x000000c8   Code   RO         5349    i.OS_TickTaskInit   os_tick.o
    0x08005334   0x00000134   Code   RO         5434    i.OS_TmrInit        os_tmr.o
    0x08005468   0x00000018   Code   RO         5435    i.OS_TmrLock        os_tmr.o
    0x08005480   0x00000094   Code   RO         5436    i.OS_TmrTask        os_tmr.o
    0x08005514   0x00000044   Code   RO         5437    i.OS_TmrUnlink      os_tmr.o
    0x08005558   0x00000014   Code   RO         5438    i.OS_TmrUnlock      os_tmr.o
    0x0800556c   0x00000020   Code   RO          753    i.RCC_AHB1PeriphClockCmd  stm32f4xx_rcc.o
    0x0800558c   0x00000020   Code   RO          762    i.RCC_APB1PeriphClockCmd  stm32f4xx_rcc.o
    0x080055ac   0x00000020   Code   RO          764    i.RCC_APB1PeriphResetCmd  stm32f4xx_rcc.o
    0x080055cc   0x00000020   Code   RO          765    i.RCC_APB2PeriphClockCmd  stm32f4xx_rcc.o
    0x080055ec   0x00000020   Code   RO          767    i.RCC_APB2PeriphResetCmd  stm32f4xx_rcc.o
    0x0800560c   0x000000e8   Code   RO          774    i.RCC_GetClocksFreq  stm32f4xx_rcc.o
    0x080056f4   0x0000000c   Code   RO         1092    i.SDIO_ClearFlag    stm32f4xx_sdio.o
    0x08005700   0x0000000c   Code   RO         1093    i.SDIO_ClearITPendingBit  stm32f4xx_sdio.o
    0x0800570c   0x0000000c   Code   RO         1094    i.SDIO_ClockCmd     stm32f4xx_sdio.o
    0x08005718   0x0000000c   Code   RO         1097    i.SDIO_DMACmd       stm32f4xx_sdio.o
    0x08005724   0x00000034   Code   RO         1098    i.SDIO_DataConfig   stm32f4xx_sdio.o
    0x08005758   0x00000016   Code   RO         1100    i.SDIO_DeInit       stm32f4xx_sdio.o
    0x0800576e   0x00000002   PAD
    0x08005770   0x0000000c   Code   RO         1101    i.SDIO_GetCommandResponse  stm32f4xx_sdio.o
    0x0800577c   0x00000018   Code   RO         1104    i.SDIO_GetFlagStatus  stm32f4xx_sdio.o
    0x08005794   0x00000018   Code   RO         1105    i.SDIO_GetITStatus  stm32f4xx_sdio.o
    0x080057ac   0x00000010   Code   RO         1106    i.SDIO_GetPowerState  stm32f4xx_sdio.o
    0x080057bc   0x00000018   Code   RO         1107    i.SDIO_GetResponse  stm32f4xx_sdio.o
    0x080057d4   0x00000036   Code   RO         3084    i.SDIO_IRQHandler   stm32f4xx_it.o
    0x0800580a   0x00000002   PAD
    0x0800580c   0x00000020   Code   RO         1108    i.SDIO_ITConfig     stm32f4xx_sdio.o
    0x0800582c   0x00000030   Code   RO         1109    i.SDIO_Init         stm32f4xx_sdio.o
    0x0800585c   0x0000000c   Code   RO         1110    i.SDIO_ReadData     stm32f4xx_sdio.o
    0x08005868   0x0000002c   Code   RO         1112    i.SDIO_SendCommand  stm32f4xx_sdio.o
    0x08005894   0x0000000c   Code   RO         1114    i.SDIO_SetPowerState  stm32f4xx_sdio.o
    0x080058a0   0x00000008   Code   RO         3308    i.SD_Detect         sdio_tf.o
    0x080058a8   0x00000026   Code   RO         3311    i.SD_GetState       sdio_tf.o
    0x080058ce   0x0000001e   Code   RO         3312    i.SD_GetStatus      sdio_tf.o
    0x080058ec   0x0000013c   Code   RO         3313    i.SD_InitializeCards  sdio_tf.o
    0x08005a28   0x0000008c   Code   RO         3314    i.SD_LowLevel_DMA_RxConfig  sdio_tf.o
    0x08005ab4   0x00000090   Code   RO         3315    i.SD_LowLevel_DMA_TxConfig  sdio_tf.o
    0x08005b44   0x00000054   Code   RO         3316    i.SD_ProcessDMAIRQ  sdio_tf.o
    0x08005b98   0x000000ac   Code   RO         3317    i.SD_ProcessIRQSrc  sdio_tf.o
    0x08005c44   0x000000f0   Code   RO         3318    i.SD_ReadBlock      sdio_tf.o
    0x08005d34   0x000000f8   Code   RO         3319    i.SD_ReadMultiBlocks  sdio_tf.o
    0x08005e2c   0x00000054   Code   RO         3321    i.SD_SendStatus     sdio_tf.o
    0x08005e80   0x00000034   Code   RO         3322    i.SD_StopTransfer   sdio_tf.o
    0x08005eb4   0x00000094   Code   RO         3323    i.SD_WaitReadOperation  sdio_tf.o
    0x08005f48   0x00000094   Code   RO         3324    i.SD_WaitWriteOperation  sdio_tf.o
    0x08005fdc   0x000000ec   Code   RO         3325    i.SD_WriteBlock     sdio_tf.o
    0x080060c8   0x00000158   Code   RO         3326    i.SD_WriteMultiBlocks  sdio_tf.o
    0x08006220   0x00000090   Code   RO         3327    i.SD_enableWideBusOperation  sdio_tf.o
    0x080062b0   0x0000031c   Code   RO         3328    i.SD_getCardInfo    sdio_tf.o
    0x080065cc   0x000001d4   Code   RO         3330    i.SD_powerOn        sdio_tf.o
    0x080067a0   0x00000038   Code   RO         3331    i.SD_selectDeselect  sdio_tf.o
    0x080067d8   0x00000018   Code   RO         1295    i.SPI_Cmd           stm32f4xx_spi.o
    0x080067f0   0x00000012   Code   RO         1303    i.SPI_I2S_GetFlagStatus  stm32f4xx_spi.o
    0x08006802   0x00000006   Code   RO         1306    i.SPI_I2S_ReceiveData  stm32f4xx_spi.o
    0x08006808   0x00000004   Code   RO         1307    i.SPI_I2S_SendData  stm32f4xx_spi.o
    0x0800680c   0x0000003c   Code   RO         1308    i.SPI_Init          stm32f4xx_spi.o
    0x08006848   0x00000002   Code   RO         3085    i.SVC_Handler       stm32f4xx_it.o
    0x0800684a   0x00000002   PAD
    0x0800684c   0x000000ec   Code   RO           13    i.SetSysClock       system_stm32f4xx.o
    0x08006938   0x00000068   Code   RO           15    i.SystemInit        system_stm32f4xx.o
    0x080069a0   0x0000003a   Code   RO         1517    i.TI1_Config        stm32f4xx_tim.o
    0x080069da   0x00000050   Code   RO         1518    i.TI2_Config        stm32f4xx_tim.o
    0x08006a2a   0x00000048   Code   RO         1519    i.TI3_Config        stm32f4xx_tim.o
    0x08006a72   0x00000050   Code   RO         1520    i.TI4_Config        stm32f4xx_tim.o
    0x08006ac2   0x00000002   PAD
    0x08006ac4   0x0000001c   Code   RO         3086    i.TIM1_CC_IRQHandler  stm32f4xx_it.o
    0x08006ae0   0x00000018   Code   RO         3087    i.TIM2_IRQHandler   stm32f4xx_it.o
    0x08006af8   0x00000064   Code   RO         3088    i.TIM3_IRQHandler   stm32f4xx_it.o
    0x08006b5c   0x000000e8   Code   RO         3089    i.TIM4_IRQHandler   stm32f4xx_it.o
    0x08006c44   0x00000018   Code   RO         1521    i.TIM_ARRPreloadConfig  stm32f4xx_tim.o
    0x08006c5c   0x00000006   Code   RO         1528    i.TIM_ClearITPendingBit  stm32f4xx_tim.o
    0x08006c62   0x00000018   Code   RO         1533    i.TIM_Cmd           stm32f4xx_tim.o
    0x08006c7a   0x00000006   Code   RO         1551    i.TIM_GetCapture4   stm32f4xx_tim.o
    0x08006c80   0x00000022   Code   RO         1554    i.TIM_GetITStatus   stm32f4xx_tim.o
    0x08006ca2   0x0000006e   Code   RO         1556    i.TIM_ICInit        stm32f4xx_tim.o
    0x08006d10   0x00000012   Code   RO         1558    i.TIM_ITConfig      stm32f4xx_tim.o
    0x08006d22   0x00000002   PAD
    0x08006d24   0x0000007c   Code   RO         1562    i.TIM_OC1Init       stm32f4xx_tim.o
    0x08006da0   0x00000012   Code   RO         1565    i.TIM_OC1PreloadConfig  stm32f4xx_tim.o
    0x08006db2   0x00000002   PAD
    0x08006db4   0x000000a4   Code   RO         1567    i.TIM_OC2Init       stm32f4xx_tim.o
    0x08006e58   0x000000a0   Code   RO         1572    i.TIM_OC3Init       stm32f4xx_tim.o
    0x08006ef8   0x00000078   Code   RO         1577    i.TIM_OC4Init       stm32f4xx_tim.o
    0x08006f70   0x00000004   Code   RO         1595    i.TIM_SetCompare1   stm32f4xx_tim.o
    0x08006f74   0x00000004   Code   RO         1596    i.TIM_SetCompare2   stm32f4xx_tim.o
    0x08006f78   0x00000004   Code   RO         1597    i.TIM_SetCompare3   stm32f4xx_tim.o
    0x08006f7c   0x00000004   Code   RO         1598    i.TIM_SetCompare4   stm32f4xx_tim.o
    0x08006f80   0x00000012   Code   RO         1600    i.TIM_SetIC1Prescaler  stm32f4xx_tim.o
    0x08006f92   0x0000001a   Code   RO         1601    i.TIM_SetIC2Prescaler  stm32f4xx_tim.o
    0x08006fac   0x00000012   Code   RO         1602    i.TIM_SetIC3Prescaler  stm32f4xx_tim.o
    0x08006fbe   0x0000001a   Code   RO         1603    i.TIM_SetIC4Prescaler  stm32f4xx_tim.o
    0x08006fd8   0x00000084   Code   RO         1605    i.TIM_TimeBaseInit  stm32f4xx_tim.o
    0x0800705c   0x00000260   Code   RO         3090    i.UART4_IRQHandler  stm32f4xx_it.o
    0x080072bc   0x00000130   Code   RO         3091    i.USART2_IRQHandler  stm32f4xx_it.o
    0x080073ec   0x00000118   Code   RO         3092    i.USART3_IRQHandler  stm32f4xx_it.o
    0x08007504   0x0000001e   Code   RO         2084    i.USART_ClearITPendingBit  stm32f4xx_usart.o
    0x08007522   0x00000018   Code   RO         2087    i.USART_Cmd         stm32f4xx_usart.o
    0x0800753a   0x00000012   Code   RO         2088    i.USART_DMACmd      stm32f4xx_usart.o
    0x0800754c   0x0000001a   Code   RO         2090    i.USART_GetFlagStatus  stm32f4xx_usart.o
    0x08007566   0x00000054   Code   RO         2091    i.USART_GetITStatus  stm32f4xx_usart.o
    0x080075ba   0x0000004a   Code   RO         2093    i.USART_ITConfig    stm32f4xx_usart.o
    0x08007604   0x000000d4   Code   RO         2094    i.USART_Init        stm32f4xx_usart.o
    0x080076d8   0x0000000a   Code   RO         2101    i.USART_ReceiveData  stm32f4xx_usart.o
    0x080076e2   0x00000008   Code   RO         2104    i.USART_SendData    stm32f4xx_usart.o
    0x080076ea   0x00000004   Code   RO         3093    i.UsageFault_Handler  stm32f4xx_it.o
    0x080076ee   0x00000002   PAD
    0x080076f0   0x00000020   Code   RO         6495    i.__0printf         mc_w.l(printfa.o)
    0x08007710   0x00000028   Code   RO         6497    i.__0sprintf        mc_w.l(printfa.o)
    0x08007738   0x0000000e   Code   RO         6565    i.__scatterload_copy  mc_w.l(handlers.o)
    0x08007746   0x00000002   Code   RO         6566    i.__scatterload_null  mc_w.l(handlers.o)
    0x08007748   0x0000000e   Code   RO         6567    i.__scatterload_zeroinit  mc_w.l(handlers.o)
    0x08007756   0x00000002   PAD
    0x08007758   0x00000164   Code   RO         6502    i._fp_digits        mc_w.l(printfa.o)
    0x080078bc   0x000006dc   Code   RO         6503    i._printf_core      mc_w.l(printfa.o)
    0x08007f98   0x00000024   Code   RO         6504    i._printf_post_padding  mc_w.l(printfa.o)
    0x08007fbc   0x0000002e   Code   RO         6505    i._printf_pre_padding  mc_w.l(printfa.o)
    0x08007fea   0x0000000a   Code   RO         6507    i._sputc            mc_w.l(printfa.o)
    0x08007ff4   0x0000046e   Code   RO         5576    i.appBlackBox       apppresent.o
    0x08008462   0x00000002   PAD
    0x08008464   0x000000cc   Code   RO         5577    i.appBuzzer         apppresent.o
    0x08008530   0x0000050c   Code   RO         5677    i.appCmdHander      appcommunicate.o
    0x08008a3c   0x000007fc   Code   RO         5622    i.appMainCycle      appcontroller.o
    0x08009238   0x00000012   Code   RO         5623    i.appPositionCtl    appcontroller.o
    0x0800924a   0x00000002   PAD
    0x0800924c   0x0000097c   Code   RO         5678    i.appSendBluetooth  appcommunicate.o
    0x08009bc8   0x000003f8   Code   RO         5533    i.appTaskStart      app.o
    0x08009fc0   0x0000002c   Code   RO         5534    i.appTest           app.o
    0x08009fec   0x000000b0   Code   RO         5535    i.appWatchDog       app.o
    0x0800a09c   0x00000028   Code   RO         3257    i.at25320_WRDI      at25320.o
    0x0800a0c4   0x00000028   Code   RO         3258    i.at25320_WREN      at25320.o
    0x0800a0ec   0x00000054   Code   RO         3259    i.at25320_readBuffer  at25320.o
    0x0800a140   0x00000038   Code   RO         3260    i.at25320_swapByte  at25320.o
    0x0800a178   0x00000054   Code   RO         3261    i.at25320_writeBuffer  at25320.o
    0x0800a1cc   0x0000007c   Code   RO         5823    i.check_fs          ff.o
    0x0800a248   0x00000014   Code   RO         5824    i.chk_chr           ff.o
    0x0800a25c   0x00000032   Code   RO         5825    i.clmt_clust        ff.o
    0x0800a28e   0x0000001a   Code   RO         5826    i.clust2sect        ff.o
    0x0800a2a8   0x0000002c   Code   RO         3332    i.cmdError          sdio_tf.o
    0x0800a2d4   0x00000038   Code   RO         3333    i.cmdResp2Error     sdio_tf.o
    0x0800a30c   0x00000038   Code   RO         3334    i.cmdResp3Error     sdio_tf.o
    0x0800a344   0x00000098   Code   RO         3335    i.cmdResp6Error     sdio_tf.o
    0x0800a3dc   0x0000004c   Code   RO         3336    i.cmdResp7Error     sdio_tf.o
    0x0800a428   0x00000070   Code   RO         3094    i.cmpWifiStr        stm32f4xx_it.o
    0x0800a498   0x00000020   Code   RO         5624    i.constrain_float   appcontroller.o
    0x0800a4b8   0x00000018   Code   RO         3226    i.crc32Calculate    crctable.o
    0x0800a4d0   0x000000e0   Code   RO         5827    i.create_chain      ff.o
    0x0800a5b0   0x00000118   Code   RO         5828    i.create_name       ff.o
    0x0800a6c8   0x00000060   Code   RO         5829    i.dir_alloc         ff.o
    0x0800a728   0x0000006c   Code   RO         5830    i.dir_find          ff.o
    0x0800a794   0x0000010c   Code   RO         5831    i.dir_next          ff.o
    0x0800a8a0   0x0000003c   Code   RO         5833    i.dir_register      ff.o
    0x0800a8dc   0x0000009a   Code   RO         5835    i.dir_sdi           ff.o
    0x0800a976   0x00000026   Code   RO         5772    i.disk_initialize   diskio.o
    0x0800a99c   0x00000074   Code   RO         5773    i.disk_ioctl        diskio.o
    0x0800aa10   0x00000084   Code   RO         5774    i.disk_read         diskio.o
    0x0800aa94   0x0000001c   Code   RO         5775    i.disk_status       diskio.o
    0x0800aab0   0x00000084   Code   RO         5776    i.disk_write        diskio.o
    0x0800ab34   0x00000022   Code   RO         5836    i.f_close           ff.o
    0x0800ab56   0x000002ac   Code   RO         5840    i.f_lseek           ff.o
    0x0800ae02   0x00000002   PAD
    0x0800ae04   0x0000005c   Code   RO         5842    i.f_mount           ff.o
    0x0800ae60   0x000001f2   Code   RO         5843    i.f_open            ff.o
    0x0800b052   0x000001ac   Code   RO         5848    i.f_read            ff.o
    0x0800b1fe   0x0000003e   Code   RO         5851    i.f_stat            ff.o
    0x0800b23c   0x000000a0   Code   RO         5852    i.f_sync            ff.o
    0x0800b2dc   0x000001ee   Code   RO         5855    i.f_write           ff.o
    0x0800b4ca   0x00000002   PAD
    0x0800b4cc   0x000002f8   Code   RO         5856    i.find_volume       ff.o
    0x0800b7c4   0x000000a2   Code   RO         5857    i.follow_path       ff.o
    0x0800b866   0x00000014   Code   RO         2739    i.fputc             bsp.o
    0x0800b87a   0x00000002   PAD
    0x0800b87c   0x00000054   Code   RO         2943    i.fun_createTaskSimple  function.o
    0x0800b8d0   0x0000001e   Code   RO         2944    i.fun_delayMs       function.o
    0x0800b8ee   0x00000002   PAD
    0x0800b8f0   0x00000044   Code   RO         2945    i.fun_delayUs       function.o
    0x0800b934   0x00000022   Code   RO         2946    i.fun_nvicSetNormal  function.o
    0x0800b956   0x00000032   Code   RO         2948    i.fun_spiSwap       function.o
    0x0800b988   0x0000001e   Code   RO         2950    i.fun_usartSend     function.o
    0x0800b9a6   0x00000094   Code   RO         5578    i.getFileNameFromNumber  apppresent.o
    0x0800ba3a   0x000000e0   Code   RO         5858    i.get_fat           ff.o
    0x0800bb1a   0x00000004   Code   RO         6161    i.get_fattime       ff_driver.o
    0x0800bb1e   0x0000008c   Code   RO         5859    i.get_fileinfo      ff.o
    0x0800bbaa   0x0000004a   Code   RO         5860    i.get_ldnumber      ff.o
    0x0800bbf4   0x00000026   Code   RO         5861    i.ld_clust          ff.o
    0x0800bc1a   0x00000018   Code   RO         5862    i.ld_dword          ff.o
    0x0800bc32   0x0000000c   Code   RO         5863    i.ld_word           ff.o
    0x0800bc3e   0x00000002   PAD
    0x0800bc40   0x00000064   Code   RO         3616    i.main              main.o
    0x0800bca4   0x00000024   Code   RO         5864    i.mem_cmp           ff.o
    0x0800bcc8   0x0000001a   Code   RO         5865    i.mem_cpy           ff.o
    0x0800bce2   0x00000012   Code   RO         5866    i.mem_set           ff.o
    0x0800bcf4   0x00000034   Code   RO         5867    i.move_window       ff.o
    0x0800bd28   0x00000138   Code   RO         5868    i.put_fat           ff.o
    0x0800be60   0x00000096   Code   RO         5872    i.remove_chain      ff.o
    0x0800bef6   0x00000002   PAD
    0x0800bef8   0x0000011c   Code   RO         3337    i.sdEnWideBus       sdio_tf.o
    0x0800c014   0x00000034   Code   RO         5625    i.setMotor          appcontroller.o
    0x0800c048   0x00000024   Code   RO         5873    i.st_clust          ff.o
    0x0800c06c   0x00000018   Code   RO         5874    i.st_dword          ff.o
    0x0800c084   0x0000000c   Code   RO         5875    i.st_word           ff.o
    0x0800c090   0x00000090   Code   RO         5876    i.sync_fs           ff.o
    0x0800c120   0x00000052   Code   RO         5877    i.sync_window       ff.o
    0x0800c172   0x0000001a   Code   RO         5681    i.usartSendStr      appcommunicate.o
    0x0800c18c   0x00000042   Code   RO         5878    i.validate          ff.o
    0x0800c1ce   0x00000019   Data   RO         3096    .constdata          stm32f4xx_it.o
    0x0800c1e7   0x00000001   PAD
    0x0800c1e8   0x00000094   Data   RO         4418    .constdata          os_cfg_app.o
    0x0800c27c   0x0000016c   Data   RO         4722    .constdata          os_dbg.o
    0x0800c3e8   0x00000062   Data   RO         5683    .constdata          appcommunicate.o
    0x0800c44a   0x00000002   PAD
    0x0800c44c   0x00000020   Data   RO         6563    Region$$Table       anon$$obj.o


    Execution Region RW_IRAM1 (Base: 0x20000000, Size: 0x000062f0, Max: 0x00020000, ABSOLUTE, COMPRESSED[0x000000d0])

    Base Addr    Size         Type   Attr      Idx    E Section Name        Object

    0x20000000   0x00000010   Data   RW          806    .data               stm32f4xx_rcc.o
    0x20000010   0x00000016   Data   RW         3097    .data               stm32f4xx_it.o
    0x20000026   0x00000002   PAD
    0x20000028   0x00000018   Data   RW         3339    .data               sdio_tf.o
    0x20000040   0x0000001c   Data   RW         3794    .data               cpu_core.o
    0x2000005c   0x00000004   Data   RW         4654    .data               os_cpu_c.o
    0x20000060   0x00000008   Data   RW         4992    .data               os_prio.o
    0x20000068   0x000000bc   Data   RW         5514    .data               os_var.o
    0x20000124   0x00000004   Data   RW         5537    .data               app.o
    0x20000128   0x00000001   Data   RW         5580    .data               apppresent.o
    0x20000129   0x00000003   PAD
    0x2000012c   0x00000188   Data   RW         5684    .data               appcommunicate.o
    0x200002b4   0x0000000a   Data   RW         5879    .data               ff.o
    0x200002be   0x00000002   PAD
    0x200002c0   0x00000004   Data   RW         6539    .data               mc_w.l(stdout.o)
    0x200002c4   0x00000128   Zero   RW         2740    .bss                bsp.o
    0x200003ec   0x0000000c   Zero   RW         3095    .bss                stm32f4xx_it.o
    0x200003f8   0x000000cc   Zero   RW         3338    .bss                sdio_tf.o
    0x200004c4   0x000004c0   Zero   RW         3617    .bss                main.o
    0x20000984   0x00000010   Zero   RW         3792    .bss                cpu_core.o
    0x20000994   0x00000f60   Zero   RW         4417    .bss                os_cfg_app.o
    0x200018f4   0x0000063c   Zero   RW         5513    .bss                os_var.o
    0x20001f30   0x00003e10   Zero   RW         5536    .bss                app.o
    0x20005d40   0x0000008a   Zero   RW         5579    .bss                apppresent.o
    0x20005dca   0x00000122   Zero   RW         5682    .bss                appcommunicate.o
    0x20005eec   0x00000004   PAD
    0x20005ef0   0x00000400   Zero   RW            1    STACK               startup_stm32f40_41xxx.o


==============================================================================

Image component sizes


      Code (inc. data)   RO Data    RW Data    ZI Data      Debug   Object Name

      1236        312          0          4      15888       5787   app.o
      3746        138         98        392        290       5175   appcommunicate.o
      2146         74          0          0          0       3333   appcontroller.o
      1486         74          0          1        138       6133   apppresent.o
       304         52          0          0          0       3217   at25320.o
      1774         94          0          0        296      64736   bsp.o
        52          0          0          0          0        284   cpu_a.o
       540         98          0         28         16       9108   cpu_core.o
        24          0          0          0          0        969   crctable.o
       446          4          0          0          0       4906   diskio.o
      6254         58          0         10          0      36612   ff.o
         4          0          0          0          0        478   ff_driver.o
       296         18          0          0          0       4177   function.o
       102          0          0          0          0      12752   lib_mem.o
       100         30          0          0       1216       1057   main.o
       140         24          0          0          0       1535   misc.o
         2          0        148          0       3936      18993   os_cfg_app.o
      2446        316          0          0          0      17695   os_core.o
       212         32          0          0          0        344   os_cpu_a.o
       640         56          0          4          0       6785   os_cpu_c.o
       424        278        364          0          0       4689   os_dbg.o
        24         10          0          0          0        826   os_flag.o
       424         26          0          0          0       3856   os_mem.o
       470         24          0          0          0       3357   os_msg.o
      1132         56          0          0          0       6294   os_mutex.o
       136         16          0          8          0       2790   os_prio.o
        24         10          0          0          0        831   os_q.o
       946         48          0          0          0       5427   os_sem.o
      1592        196          0          0          0       3975   os_stat.o
      3620        154          0          0          0      15588   os_task.o
      1162         88          0          0          0       5803   os_tick.o
       520         40          0          0          0       2705   os_time.o
       568        142          0          0          0       3477   os_tmr.o
         0          0          0        188       1596      17654   os_var.o
      5552        464          0         24        204      31329   sdio_tf.o
        36          8        392          0       1024        884   startup_stm32f40_41xxx.o
       836         12          0          0          0       3663   stm32f4xx_can.o
       738         72          0          0          0       6390   stm32f4xx_dma.o
        36         10          0          0          0       1140   stm32f4xx_exti.o
       214          0          0          0          0       1771   stm32f4xx_gpio.o
      1932        190         25         22         12      12660   stm32f4xx_it.o
       392         48          0         16          0       5833   stm32f4xx_rcc.o
       370         80          0          0          0      10586   stm32f4xx_sdio.o
       112          0          0          0          0       3494   stm32f4xx_spi.o
      1334         66          0          0          0      16451   stm32f4xx_tim.o
       486          8          0          0          0       6754   stm32f4xx_usart.o
       340         32          0          0          0     322589   system_stm32f4xx.o

    ----------------------------------------------------------------------
     45426       3458       1062        704      24620     704892   Object Totals
         0          0         32          0          0          0   (incl. Generated)
        56          0          3          7          4          0   (incl. Padding)

    ----------------------------------------------------------------------

      Code (inc. data)   RO Data    RW Data    ZI Data      Debug   Library Member Name

        86          0          0          0          0          0   __dczerorl2.o
         0          0          0          0          0          0   entry.o
         0          0          0          0          0          0   entry10a.o
         0          0          0          0          0          0   entry11a.o
         8          4          0          0          0          0   entry2.o
         4          0          0          0          0          0   entry5.o
         0          0          0          0          0          0   entry7b.o
         0          0          0          0          0          0   entry8b.o
         8          4          0          0          0          0   entry9a.o
        30          0          0          0          0          0   handlers.o
        36          8          0          0          0         68   init.o
         0          0          0          0          0          0   iusefp.o
        30          0          0          0          0         68   llshl.o
        36          0          0          0          0         68   llsshr.o
        32          0          0          0          0         68   llushr.o
      2276         96          0          0          0        596   printfa.o
         0          0          0          4          0          0   stdout.o
        44          0          0          0          0         80   uidiv.o
        98          0          0          0          0         92   uldiv.o
        48          0          0          0          0         68   cdrcmple.o
       334          0          0          0          0        148   dadd.o
       222          0          0          0          0        100   ddiv.o
       186          0          0          0          0        176   depilogue.o
        48          0          0          0          0         68   dfixul.o
       228          0          0          0          0         96   dmul.o
        38          0          0          0          0         68   f2d.o

    ----------------------------------------------------------------------
      3796        112          0          4          0       1764   Library Totals
         4          0          0          0          0          0   (incl. Padding)

    ----------------------------------------------------------------------

      Code (inc. data)   RO Data    RW Data    ZI Data      Debug   Library Name

      2688        112          0          4          0       1040   mc_w.l
      1104          0          0          0          0        724   mf_w.l

    ----------------------------------------------------------------------
      3796        112          0          4          0       1764   Library Totals

    ----------------------------------------------------------------------

==============================================================================


      Code (inc. data)   RO Data    RW Data    ZI Data      Debug   

     49222       3570       1062        708      24620     673456   Grand Totals
     49222       3570       1062        208      24620     673456   ELF Image Totals (compressed)
     49222       3570       1062        208          0          0   ROM Totals

==============================================================================

    Total RO  Size (Code + RO Data)                50284 (  49.11kB)
    Total RW  Size (RW Data + ZI Data)             25328 (  24.73kB)
    Total ROM Size (Code + RO Data + RW Data)      50492 (  49.31kB)

==============================================================================

